	.file	"kdtree.c"
# GNU C17 (Ubuntu 13.2.0-4ubuntu3) version 13.2.0 (x86_64-linux-gnu)
#	compiled by GNU C version 13.2.0, GMP version 6.3.0, MPFR version 4.2.1, MPC version 1.3.1, isl version isl-0.26-GMP

# GGC heuristics: --param ggc-min-expand=100 --param ggc-min-heapsize=131072
# options passed: -mavx2 -mtune=generic -march=x86-64 -ggdb -O3 -fasynchronous-unwind-tables -fstack-protector-strong -fstack-clash-protection -fcf-protection
	.text
.Ltext0:
	.file 0 "/home/francesco/Desktop/dssc/robavaria/cc" "src/kdtree.c"
	.p2align 4
	.globl	swap
	.type	swap, @function
swap:
.LVL0:
.LFB53:
	.file 1 "src/kdtree.c"
	.loc 1 11 22 view -0
	.cfi_startproc
	.loc 1 11 22 is_stmt 0 view .LVU1
	endbr64	
	.loc 1 12 5 is_stmt 1 view .LVU2
	.loc 1 13 5 view .LVU3
.LVL1:
.LBB60:
.LBI60:
	.file 2 "/usr/include/x86_64-linux-gnu/bits/string_fortified.h"
	.loc 2 26 1 view .LVU4
.LBB61:
	.loc 2 29 3 view .LVU5
# /usr/include/x86_64-linux-gnu/bits/string_fortified.h:29:   return __builtin___memcpy_chk (__dest, __src, __len,
	.loc 2 29 10 is_stmt 0 discriminator 1 view .LVU6
	movq	(%rdi), %rax	# MEM <unsigned long> [(char * {ref-all})a_2(D)], _3
.LVL2:
	.loc 2 29 10 discriminator 1 view .LVU7
.LBE61:
.LBE60:
	.loc 1 14 5 is_stmt 1 view .LVU8
.LBB62:
.LBI62:
	.loc 2 26 1 view .LVU9
.LBB63:
	.loc 2 29 3 view .LVU10
# /usr/include/x86_64-linux-gnu/bits/string_fortified.h:29:   return __builtin___memcpy_chk (__dest, __src, __len,
	.loc 2 29 10 is_stmt 0 discriminator 1 view .LVU11
	movq	(%rsi), %rdx	# MEM <unsigned long> [(char * {ref-all})b_4(D)], _11
	movq	%rdx, (%rdi)	# _11, MEM <unsigned long> [(char * {ref-all})a_2(D)]
.LVL3:
	.loc 2 29 10 discriminator 1 view .LVU12
.LBE63:
.LBE62:
	.loc 1 15 5 is_stmt 1 view .LVU13
.LBB64:
.LBI64:
	.loc 2 26 1 view .LVU14
.LBB65:
	.loc 2 29 3 view .LVU15
# /usr/include/x86_64-linux-gnu/bits/string_fortified.h:29:   return __builtin___memcpy_chk (__dest, __src, __len,
	.loc 2 29 10 is_stmt 0 discriminator 1 view .LVU16
	movq	%rax, (%rsi)	# _3, MEM <unsigned long> [(char * {ref-all})b_4(D)]
.LVL4:
	.loc 2 29 10 discriminator 1 view .LVU17
.LBE65:
.LBE64:
	.loc 1 16 5 is_stmt 1 view .LVU18
# src/kdtree.c:17: }
	.loc 1 17 1 is_stmt 0 view .LVU19
	ret	
	.cfi_endproc
.LFE53:
	.size	swap, .-swap
	.p2align 4
	.globl	euclidean_distance
	.type	euclidean_distance, @function
euclidean_distance:
.LVL5:
.LFB54:
	.loc 1 19 62 is_stmt 1 view -0
	.cfi_startproc
	.loc 1 19 62 is_stmt 0 view .LVU21
	endbr64	
	.loc 1 20 5 is_stmt 1 view .LVU22
.LVL6:
	.loc 1 21 5 view .LVU23
.LBB66:
	.loc 1 21 9 view .LVU24
	.loc 1 21 30 discriminator 1 view .LVU25
	movl	data_dims(%rip), %ecx	# data_dims, data_dims.0_19
.LBE66:
# src/kdtree.c:19: FLOAT_TYPE euclidean_distance(FLOAT_TYPE* p1, FLOAT_TYPE* p2){
	.loc 1 19 62 is_stmt 0 view .LVU26
	movq	%rdi, %rdx	# tmp150, p1
.LBB70:
# src/kdtree.c:21:     for(unsigned int i = 0; i<data_dims; ++i){
	.loc 1 21 30 discriminator 1 view .LVU27
	testl	%ecx, %ecx	# data_dims.0_19
	je	.L11	#,
	leal	-1(%rcx), %eax	#, tmp128
	cmpl	$2, %eax	#, tmp128
	jbe	.L12	#,
	movl	%ecx, %edi	# data_dims.0_19, bnd.29
.LVL7:
	.loc 1 21 30 discriminator 1 view .LVU28
	xorl	%eax, %eax	# ivtmp.60
.LBE70:
# src/kdtree.c:20:     FLOAT_TYPE d = 0;
	.loc 1 20 16 view .LVU29
	vxorpd	%xmm0, %xmm0, %xmm0	# <retval>
	shrl	$2, %edi	#,
	salq	$5, %rdi	#, _87
.LVL8:
	.p2align 4,,10
	.p2align 3
.L6:
.LBB71:
.LBB67:
	.loc 1 22 9 is_stmt 1 view .LVU30
# src/kdtree.c:22:         FLOAT_TYPE dd = (p1[i] - p2[i]);
	.loc 1 22 20 is_stmt 0 view .LVU31
	vmovupd	(%rdx,%rax), %ymm4	# MEM <vector(4) double> [(double *)p1_13(D) + ivtmp.60_75 * 1], tmp154
	vsubpd	(%rsi,%rax), %ymm4, %ymm1	# MEM <vector(4) double> [(double *)p2_14(D) + ivtmp.60_75 * 1], tmp154, vect_dd_15.38
.LVL9:
	.loc 1 23 9 is_stmt 1 view .LVU32
	addq	$32, %rax	#, ivtmp.60
# src/kdtree.c:23:         d += dd*dd;
	.loc 1 23 16 is_stmt 0 view .LVU33
	vmulpd	%ymm1, %ymm1, %ymm1	# vect_dd_15.38, vect_dd_15.38, vect__8.39
	vaddsd	%xmm1, %xmm0, %xmm0	# stmp_d_16.40, <retval>, stmp_d_16.40
.LVL10:
	.loc 1 23 16 view .LVU34
	vunpckhpd	%xmm1, %xmm1, %xmm2	# tmp133, stmp_d_16.40
	vextractf128	$0x1, %ymm1, %xmm1	# vect__8.39, tmp135
	vaddsd	%xmm2, %xmm0, %xmm0	# stmp_d_16.40, stmp_d_16.40, stmp_d_16.40
# src/kdtree.c:23:         d += dd*dd;
	.loc 1 23 11 view .LVU35
	vaddsd	%xmm1, %xmm0, %xmm0	# stmp_d_16.40, stmp_d_16.40, stmp_d_16.40
	vunpckhpd	%xmm1, %xmm1, %xmm1	# tmp135, stmp_d_16.40
	vaddsd	%xmm1, %xmm0, %xmm0	# stmp_d_16.40, stmp_d_16.40, <retval>
.LVL11:
	.loc 1 23 11 view .LVU36
.LBE67:
	.loc 1 21 42 is_stmt 1 discriminator 3 view .LVU37
	.loc 1 21 30 discriminator 1 view .LVU38
	cmpq	%rdi, %rax	# _87, ivtmp.60
	jne	.L6	#,
	testb	$3, %cl	#, data_dims.0_19
	je	.L23	#,
	movl	%ecx, %eax	# data_dims.0_19, tmp.44
	andl	$-4, %eax	#,
	vzeroupper
.LVL12:
.L5:
	.loc 1 21 30 is_stmt 0 discriminator 1 view .LVU39
	subl	%eax, %ecx	# tmp.44, niters.41
	cmpl	$1, %ecx	#, niters.41
	je	.L9	#,
	movl	%eax, %edi	# tmp.44, tmp.44
.LVL13:
.LBB68:
	.loc 1 22 9 is_stmt 1 view .LVU40
# src/kdtree.c:22:         FLOAT_TYPE dd = (p1[i] - p2[i]);
	.loc 1 22 20 is_stmt 0 view .LVU41
	vmovupd	(%rdx,%rdi,8), %xmm5	# MEM <vector(2) double> [(double *)vectp_p1.46_83], tmp156
	vsubpd	(%rsi,%rdi,8), %xmm5, %xmm1	# MEM <vector(2) double> [(double *)vectp_p2.49_89], tmp156, vect_dd_27.51
.LVL14:
	.loc 1 23 9 is_stmt 1 view .LVU42
# src/kdtree.c:23:         d += dd*dd;
	.loc 1 23 16 is_stmt 0 view .LVU43
	vmulpd	%xmm1, %xmm1, %xmm1	# vect_dd_27.51, vect_dd_27.51, vect__26.52
	vaddsd	%xmm1, %xmm0, %xmm0	# stmp_d_25.53, <retval>, stmp_d_25.53
.LVL15:
# src/kdtree.c:23:         d += dd*dd;
	.loc 1 23 11 view .LVU44
	vunpckhpd	%xmm1, %xmm1, %xmm1	# vect__26.52, stmp_d_25.53
	vaddsd	%xmm0, %xmm1, %xmm0	# stmp_d_25.53, stmp_d_25.53, <retval>
.LVL16:
	.loc 1 23 11 view .LVU45
.LBE68:
	.loc 1 21 42 is_stmt 1 discriminator 3 view .LVU46
	.loc 1 21 30 discriminator 1 view .LVU47
	testb	$1, %cl	#, niters.41
	je	.L3	#,
	andl	$-2, %ecx	#, niters_vector_mult_vf.43
	addl	%ecx, %eax	# niters_vector_mult_vf.43,
.LVL17:
.L9:
.LBB69:
	.loc 1 22 9 view .LVU48
# src/kdtree.c:22:         FLOAT_TYPE dd = (p1[i] - p2[i]);
	.loc 1 22 20 is_stmt 0 view .LVU49
	vmovsd	(%rdx,%rax,8), %xmm1	# *_67, *_67
	vsubsd	(%rsi,%rax,8), %xmm1, %xmm1	# *_69, *_67, dd
.LVL18:
	.loc 1 23 9 is_stmt 1 view .LVU50
# src/kdtree.c:23:         d += dd*dd;
	.loc 1 23 16 is_stmt 0 view .LVU51
	vmulsd	%xmm1, %xmm1, %xmm1	# dd, dd, tmp148
.LVL19:
# src/kdtree.c:23:         d += dd*dd;
	.loc 1 23 11 view .LVU52
	vaddsd	%xmm1, %xmm0, %xmm0	# tmp148, <retval>, <retval>
.LVL20:
	.loc 1 23 11 view .LVU53
.LBE69:
	.loc 1 21 42 is_stmt 1 discriminator 3 view .LVU54
	.loc 1 21 30 discriminator 1 view .LVU55
	ret	
.LVL21:
	.p2align 4,,10
	.p2align 3
.L23:
	.loc 1 21 30 is_stmt 0 discriminator 1 view .LVU56
	vzeroupper
.LVL22:
.L3:
	.loc 1 21 30 discriminator 1 view .LVU57
.LBE71:
# src/kdtree.c:27: }
	.loc 1 27 1 view .LVU58
	ret	
.LVL23:
	.p2align 4,,10
	.p2align 3
.L11:
# src/kdtree.c:20:     FLOAT_TYPE d = 0;
	.loc 1 20 16 view .LVU59
	vxorpd	%xmm0, %xmm0, %xmm0	# <retval>
	.loc 1 25 2 is_stmt 1 view .LVU60
# src/kdtree.c:25: 	return d;
	.loc 1 25 9 is_stmt 0 view .LVU61
	ret	
.L12:
.LBB72:
# src/kdtree.c:21:     for(unsigned int i = 0; i<data_dims; ++i){
	.loc 1 21 22 view .LVU62
	xorl	%eax, %eax	#
.LBE72:
# src/kdtree.c:20:     FLOAT_TYPE d = 0;
	.loc 1 20 16 view .LVU63
	vxorpd	%xmm0, %xmm0, %xmm0	# <retval>
	jmp	.L5	#
	.cfi_endproc
.LFE54:
	.size	euclidean_distance, .-euclidean_distance
	.p2align 4
	.globl	swapHeapNode
	.type	swapHeapNode, @function
swapHeapNode:
.LVL24:
.LFB55:
	.loc 1 29 46 is_stmt 1 view -0
	.cfi_startproc
	.loc 1 29 46 is_stmt 0 view .LVU65
	endbr64	
	.loc 1 30 5 is_stmt 1 view .LVU66
	.loc 1 31 5 view .LVU67
.LVL25:
.LBB73:
.LBI73:
	.loc 2 26 1 view .LVU68
.LBB74:
	.loc 2 29 3 view .LVU69
# /usr/include/x86_64-linux-gnu/bits/string_fortified.h:29:   return __builtin___memcpy_chk (__dest, __src, __len,
	.loc 2 29 10 is_stmt 0 discriminator 1 view .LVU70
	vmovdqu	(%rdi), %xmm0	# MEM <uint128_t> [(char * {ref-all})a_2(D)], _3
.LVL26:
	.loc 2 29 10 discriminator 1 view .LVU71
.LBE74:
.LBE73:
	.loc 1 32 5 is_stmt 1 view .LVU72
.LBB75:
.LBI75:
	.loc 2 26 1 view .LVU73
.LBB76:
	.loc 2 29 3 view .LVU74
# /usr/include/x86_64-linux-gnu/bits/string_fortified.h:29:   return __builtin___memcpy_chk (__dest, __src, __len,
	.loc 2 29 10 is_stmt 0 discriminator 1 view .LVU75
	vmovdqu	(%rsi), %xmm1	# MEM <uint128_t> [(char * {ref-all})b_4(D)], tmp89
	vmovdqu	%xmm1, (%rdi)	# tmp89, MEM <uint128_t> [(char * {ref-all})a_2(D)]
.LVL27:
	.loc 2 29 10 discriminator 1 view .LVU76
.LBE76:
.LBE75:
	.loc 1 33 5 is_stmt 1 view .LVU77
.LBB77:
.LBI77:
	.loc 2 26 1 view .LVU78
.LBB78:
	.loc 2 29 3 view .LVU79
# /usr/include/x86_64-linux-gnu/bits/string_fortified.h:29:   return __builtin___memcpy_chk (__dest, __src, __len,
	.loc 2 29 10 is_stmt 0 discriminator 1 view .LVU80
	vmovdqu	%xmm0, (%rsi)	# _3, MEM <uint128_t> [(char * {ref-all})b_4(D)]
.LVL28:
	.loc 2 29 10 discriminator 1 view .LVU81
.LBE78:
.LBE77:
	.loc 1 34 5 is_stmt 1 view .LVU82
# src/kdtree.c:35: }
	.loc 1 35 1 is_stmt 0 view .LVU83
	ret	
	.cfi_endproc
.LFE55:
	.size	swapHeapNode, .-swapHeapNode
	.p2align 4
	.globl	swap_kd_node_ptrs
	.type	swap_kd_node_ptrs, @function
swap_kd_node_ptrs:
.LVL29:
.LFB56:
	.loc 1 37 50 is_stmt 1 view -0
	.cfi_startproc
	.loc 1 37 50 is_stmt 0 view .LVU85
	endbr64	
	.loc 1 38 5 is_stmt 1 view .LVU86
	.loc 1 39 5 view .LVU87
# src/kdtree.c:39:     tmp = *x;
	.loc 1 39 9 is_stmt 0 view .LVU88
	movq	(%rdi), %rax	# *x_3(D), tmp
.LVL30:
	.loc 1 40 5 is_stmt 1 view .LVU89
# src/kdtree.c:40:     *x = *y;
	.loc 1 40 10 is_stmt 0 view .LVU90
	movq	(%rsi), %rdx	# *y_5(D), _1
# src/kdtree.c:40:     *x = *y;
	.loc 1 40 8 view .LVU91
	movq	%rdx, (%rdi)	# _1, *x_3(D)
	.loc 1 41 5 is_stmt 1 view .LVU92
# src/kdtree.c:41:     *y = tmp;
	.loc 1 41 8 is_stmt 0 view .LVU93
	movq	%rax, (%rsi)	# tmp, *y_5(D)
# src/kdtree.c:45: }
	.loc 1 45 1 view .LVU94
	ret	
	.cfi_endproc
.LFE56:
	.size	swap_kd_node_ptrs, .-swap_kd_node_ptrs
	.p2align 4
	.globl	initializeKDnodes
	.type	initializeKDnodes, @function
initializeKDnodes:
.LVL31:
.LFB57:
	.loc 1 56 1 is_stmt 1 view -0
	.cfi_startproc
	.loc 1 56 1 is_stmt 0 view .LVU96
	endbr64	
	.loc 1 57 5 is_stmt 1 view .LVU97
.LBB79:
	.loc 1 57 9 view .LVU98
.LVL32:
	.loc 1 57 24 discriminator 1 view .LVU99
	testq	%rdx, %rdx	# n
	je	.L33	#,
# src/kdtree.c:59:         node_array[i].data = d + (i*data_dims);
	.loc 1 59 36 is_stmt 0 view .LVU100
	movl	data_dims(%rip), %ecx	# data_dims, data_dims
	movq	.LC1(%rip), %r8	#, tmp96
# src/kdtree.c:57:     for(idx_t i = 0; i < n; ++i)
	.loc 1 57 15 view .LVU101
	xorl	%eax, %eax	# i
# src/kdtree.c:63:         node_array[i].parent = NULL;
	.loc 1 63 30 view .LVU102
	vpxor	%xmm0, %xmm0, %xmm0	# tmp94
	salq	$3, %rcx	#, _20
.LVL33:
	.p2align 4,,10
	.p2align 3
.L28:
	.loc 1 59 9 is_stmt 1 view .LVU103
# src/kdtree.c:60:         node_array[i].array_idx = i;
	.loc 1 60 33 is_stmt 0 view .LVU104
	movq	%rax, 16(%rdi)	# i, MEM[(long unsigned int *)_32 + 16B]
# src/kdtree.c:57:     for(idx_t i = 0; i < n; ++i)
	.loc 1 57 29 discriminator 3 view .LVU105
	addq	$1, %rax	#, i
.LVL34:
# src/kdtree.c:57:     for(idx_t i = 0; i < n; ++i)
	.loc 1 57 24 discriminator 1 view .LVU106
	addq	$48, %rdi	#, ivtmp.84
.LVL35:
# src/kdtree.c:59:         node_array[i].data = d + (i*data_dims);
	.loc 1 59 28 view .LVU107
	movq	%rsi, -40(%rdi)	# ivtmp.83, MEM[(double * *)_32 + 8B]
	.loc 1 60 9 is_stmt 1 view .LVU108
	.loc 1 61 9 view .LVU109
	.loc 1 62 9 view .LVU110
# src/kdtree.c:57:     for(idx_t i = 0; i < n; ++i)
	.loc 1 57 24 is_stmt 0 discriminator 1 view .LVU111
	addq	%rcx, %rsi	# _20, ivtmp.83
# src/kdtree.c:62:         node_array[i].rch = NULL;
	.loc 1 62 27 view .LVU112
	movq	$0, -8(%rdi)	#, MEM[(struct kd_node * *)_32 + 40B]
	.loc 1 63 9 is_stmt 1 view .LVU113
# src/kdtree.c:63:         node_array[i].parent = NULL;
	.loc 1 63 30 is_stmt 0 view .LVU114
	vmovdqu	%xmm0, -24(%rdi)	# tmp94, MEM <vector(2) long unsigned int> [(struct kd_node * *)_32 + 24B]
	.loc 1 64 9 is_stmt 1 view .LVU115
	.loc 1 65 9 view .LVU116
# src/kdtree.c:64:         node_array[i].level = -1;
	.loc 1 64 29 is_stmt 0 view .LVU117
	movq	%r8, -48(%rdi)	# tmp96, MEM <vector(2) int> [(int *)_32]
	.loc 1 57 29 is_stmt 1 discriminator 3 view .LVU118
.LVL36:
	.loc 1 57 24 discriminator 1 view .LVU119
	cmpq	%rax, %rdx	# i, n
	jne	.L28	#,
.LVL37:
.L33:
	.loc 1 57 24 is_stmt 0 discriminator 1 view .LVU120
.LBE79:
# src/kdtree.c:67: }
	.loc 1 67 1 view .LVU121
	ret	
	.cfi_endproc
.LFE57:
	.size	initializeKDnodes, .-initializeKDnodes
	.p2align 4
	.globl	initializePTRS
	.type	initializePTRS, @function
initializePTRS:
.LVL38:
.LFB58:
	.loc 1 70 1 is_stmt 1 view -0
	.cfi_startproc
	.loc 1 70 1 is_stmt 0 view .LVU123
	endbr64	
	.loc 1 71 5 is_stmt 1 view .LVU124
.LBB80:
	.loc 1 71 9 view .LVU125
.LVL39:
	.loc 1 71 24 discriminator 1 view .LVU126
.LBE80:
# src/kdtree.c:70: {
	.loc 1 70 1 is_stmt 0 view .LVU127
	movq	%rdx, %rcx	# tmp140, n
.LBB81:
# src/kdtree.c:71:     for(idx_t i = 0; i < n; ++i)
	.loc 1 71 24 discriminator 1 view .LVU128
	testq	%rdx, %rdx	# n
	je	.L48	#,
	leaq	-1(%rdx), %rax	#, tmp113
	cmpq	$2, %rax	#, tmp113
	jbe	.L39	#,
	shrq	$2, %rdx	#, bnd.90
.LVL40:
	.loc 1 71 24 discriminator 1 view .LVU129
	vmovq	%rsi, %xmm5	# node_array, node_array
	movq	%rdi, %rax	# node_ptr_array, ivtmp.102
	vmovdqa	.LC3(%rip), %ymm1	#, vect_vec_iv_.93
	salq	$5, %rdx	#, tmp116
	vpbroadcastq	%xmm5, %ymm4	# node_array, vect_cst__36
	vpbroadcastq	.LC5(%rip), %ymm3	#, tmp118
	addq	%rdi, %rdx	# node_ptr_array, _50
.LVL41:
	.p2align 4,,10
	.p2align 3
.L37:
	.loc 1 71 24 discriminator 1 view .LVU130
	vmovdqa	%ymm1, %ymm2	# vect_vec_iv_.93, vect_vec_iv_.93
	addq	$32, %rax	#, ivtmp.102
	vpaddq	%ymm3, %ymm1, %ymm1	# tmp118, vect_vec_iv_.93, vect_vec_iv_.93
	.loc 1 73 9 is_stmt 1 view .LVU131
# src/kdtree.c:73:         node_ptr_array[i] = node_array + i;
	.loc 1 73 40 is_stmt 0 view .LVU132
	vpsllq	$1, %ymm2, %ymm0	#, vect_vec_iv_.93, tmp121
	vpaddq	%ymm2, %ymm0, %ymm0	# vect_vec_iv_.93, tmp121, vect__1.94
	vpsllq	$4, %ymm0, %ymm0	#, vect__1.94, tmp123
	vpaddq	%ymm4, %ymm0, %ymm0	# vect_cst__36, tmp123, vect__4.95
# src/kdtree.c:73:         node_ptr_array[i] = node_array + i;
	.loc 1 73 27 view .LVU133
	vmovdqu	%ymm0, -32(%rax)	# vect__4.95, MEM <vector(4) long unsigned int> [(struct kd_node * *)_18]
	.loc 1 71 29 is_stmt 1 discriminator 3 view .LVU134
	.loc 1 71 24 discriminator 1 view .LVU135
	cmpq	%rdx, %rax	# _50, ivtmp.102
	jne	.L37	#,
	testb	$3, %cl	#, n
	je	.L47	#,
	movq	%rcx, %rax	# n, niters_vector_mult_vf.91
	andq	$-4, %rax	#, niters_vector_mult_vf.91
	vzeroupper
.LVL42:
.L36:
	.loc 1 73 9 view .LVU136
# src/kdtree.c:73:         node_ptr_array[i] = node_array + i;
	.loc 1 73 40 is_stmt 0 view .LVU137
	leaq	(%rax,%rax,2), %rdx	#, tmp128
# src/kdtree.c:73:         node_ptr_array[i] = node_array + i;
	.loc 1 73 23 view .LVU138
	leaq	0(,%rax,8), %r8	#, _3
# src/kdtree.c:73:         node_ptr_array[i] = node_array + i;
	.loc 1 73 40 view .LVU139
	salq	$4, %rdx	#, tmp129
	leaq	(%rsi,%rdx), %r9	#, tmp130
	movq	%r9, (%rdi,%rax,8)	# tmp130, *_4
	.loc 1 71 29 is_stmt 1 discriminator 3 view .LVU140
	.loc 1 71 24 discriminator 1 view .LVU141
# src/kdtree.c:71:     for(idx_t i = 0; i < n; ++i)
	.loc 1 71 29 is_stmt 0 discriminator 3 view .LVU142
	leaq	1(%rax), %r9	#, i
# src/kdtree.c:71:     for(idx_t i = 0; i < n; ++i)
	.loc 1 71 24 discriminator 1 view .LVU143
	cmpq	%rcx, %r9	# n, i
	jnb	.L48	#,
	.loc 1 73 9 is_stmt 1 view .LVU144
# src/kdtree.c:73:         node_ptr_array[i] = node_array + i;
	.loc 1 73 40 is_stmt 0 view .LVU145
	leaq	48(%rsi,%rdx), %r9	#, tmp133
# src/kdtree.c:71:     for(idx_t i = 0; i < n; ++i)
	.loc 1 71 29 discriminator 3 view .LVU146
	addq	$2, %rax	#, i
# src/kdtree.c:73:         node_ptr_array[i] = node_array + i;
	.loc 1 73 40 view .LVU147
	movq	%r9, 8(%rdi,%r8)	# tmp133, *_45
	.loc 1 71 29 is_stmt 1 discriminator 3 view .LVU148
	.loc 1 71 24 discriminator 1 view .LVU149
	cmpq	%rcx, %rax	# n, i
	jnb	.L48	#,
	.loc 1 73 9 view .LVU150
# src/kdtree.c:73:         node_ptr_array[i] = node_array + i;
	.loc 1 73 40 is_stmt 0 view .LVU151
	leaq	96(%rsi,%rdx), %rax	#, tmp136
	movq	%rax, 16(%rdi,%r8)	# tmp136, *_5
	.loc 1 71 29 is_stmt 1 discriminator 3 view .LVU152
	.loc 1 71 24 discriminator 1 view .LVU153
.LBE81:
# src/kdtree.c:75: }
	.loc 1 75 1 is_stmt 0 view .LVU154
	ret	
.LVL43:
	.p2align 4,,10
	.p2align 3
.L47:
	.loc 1 75 1 view .LVU155
	vzeroupper
.LVL44:
.L48:
	.loc 1 75 1 view .LVU156
	ret	
.LVL45:
.L39:
.LBB82:
# src/kdtree.c:71:     for(idx_t i = 0; i < n; ++i)
	.loc 1 71 15 view .LVU157
	xorl	%eax, %eax	# niters_vector_mult_vf.91
	jmp	.L36	#
.LBE82:
	.cfi_endproc
.LFE58:
	.size	initializePTRS, .-initializePTRS
	.p2align 4
	.globl	cmpKDnodes
	.type	cmpKDnodes, @function
cmpKDnodes:
.LVL46:
.LFB59:
	.loc 1 77 48 is_stmt 1 view -0
	.cfi_startproc
	.loc 1 77 48 is_stmt 0 view .LVU159
	endbr64	
	.loc 1 79 5 is_stmt 1 view .LVU160
# src/kdtree.c:79:     FLOAT_TYPE res = a->data[var] - b->data[var];
	.loc 1 79 44 is_stmt 0 view .LVU161
	movq	8(%rsi), %rax	# b_13(D)->data, b_13(D)->data
# src/kdtree.c:79:     FLOAT_TYPE res = a->data[var] - b->data[var];
	.loc 1 79 29 view .LVU162
	movq	8(%rdi), %rcx	# a_11(D)->data, a_11(D)->data
	movslq	%edx, %rdx	# tmp107, var
.LVL47:
	.loc 1 80 5 is_stmt 1 view .LVU163
# src/kdtree.c:80:     return (res > 0);
	.loc 1 80 17 is_stmt 0 view .LVU164
	vxorpd	%xmm1, %xmm1, %xmm1	# tmp104
# src/kdtree.c:79:     FLOAT_TYPE res = a->data[var] - b->data[var];
	.loc 1 79 16 view .LVU165
	vmovsd	(%rcx,%rdx,8), %xmm0	# *_4, *_4
	vsubsd	(%rax,%rdx,8), %xmm0, %xmm0	# *_7, *_4, res
# src/kdtree.c:80:     return (res > 0);
	.loc 1 80 17 view .LVU166
	xorl	%eax, %eax	# tmp102
	vcomisd	%xmm1, %xmm0	# tmp104, res
	seta	%al	#, tmp102
# src/kdtree.c:81: }
	.loc 1 81 1 view .LVU167
	ret	
	.cfi_endproc
.LFE59:
	.size	cmpKDnodes, .-cmpKDnodes
	.section	.rodata.str1.1,"aMS",@progbits,1
.LC6:
	.string	"Node %p:\n"
.LC7:
	.string	"\t array_idx: %lu\n"
.LC8:
	.string	"\t data: "
.LC9:
	.string	" %f "
.LC10:
	.string	"\t parent: %p\n"
.LC11:
	.string	"\t lch: %p\n"
.LC12:
	.string	"\t rch: %p\n"
.LC13:
	.string	"\t level: %d\n"
.LC14:
	.string	"\t split_var: %d\n"
	.text
	.p2align 4
	.globl	printKDnode
	.type	printKDnode, @function
printKDnode:
.LVL48:
.LFB60:
	.loc 1 84 1 is_stmt 1 view -0
	.cfi_startproc
	.loc 1 84 1 is_stmt 0 view .LVU169
	endbr64	
	.loc 1 85 5 is_stmt 1 view .LVU170
.LVL49:
.LBB83:
.LBI83:
	.file 3 "/usr/include/x86_64-linux-gnu/bits/stdio2.h"
	.loc 3 84 1 view .LVU171
.LBB84:
	.loc 3 86 3 view .LVU172
.LBE84:
.LBE83:
# src/kdtree.c:84: {
	.loc 1 84 1 is_stmt 0 view .LVU173
	pushq	%r12	#
	.cfi_def_cfa_offset 16
	.cfi_offset 12, -16
.LBB88:
.LBB85:
# /usr/include/x86_64-linux-gnu/bits/stdio2.h:86:   return __printf_chk (__USE_FORTIFY_LEVEL - 1, __fmt, __va_arg_pack ());
	.loc 3 86 10 view .LVU174
	movq	%rdi, %rdx	# node,
	leaq	.LC6(%rip), %rsi	#, tmp97
	xorl	%eax, %eax	#
.LBE85:
.LBE88:
# src/kdtree.c:84: {
	.loc 1 84 1 view .LVU175
	pushq	%rbp	#
	.cfi_def_cfa_offset 24
	.cfi_offset 6, -24
	movq	%rdi, %rbp	# tmp115, node
.LBB89:
.LBB86:
# /usr/include/x86_64-linux-gnu/bits/stdio2.h:86:   return __printf_chk (__USE_FORTIFY_LEVEL - 1, __fmt, __va_arg_pack ());
	.loc 3 86 10 view .LVU176
	movl	$1, %edi	#,
.LVL50:
	.loc 3 86 10 view .LVU177
.LBE86:
.LBE89:
# src/kdtree.c:84: {
	.loc 1 84 1 view .LVU178
	pushq	%rbx	#
	.cfi_def_cfa_offset 32
	.cfi_offset 3, -32
.LBB90:
.LBB87:
# /usr/include/x86_64-linux-gnu/bits/stdio2.h:86:   return __printf_chk (__USE_FORTIFY_LEVEL - 1, __fmt, __va_arg_pack ());
	.loc 3 86 10 view .LVU179
	call	__printf_chk@PLT	#
.LVL51:
	.loc 3 86 10 view .LVU180
.LBE87:
.LBE90:
	.loc 1 86 5 is_stmt 1 view .LVU181
.LBB91:
.LBI91:
	.loc 3 84 1 view .LVU182
.LBB92:
	.loc 3 86 3 view .LVU183
# /usr/include/x86_64-linux-gnu/bits/stdio2.h:86:   return __printf_chk (__USE_FORTIFY_LEVEL - 1, __fmt, __va_arg_pack ());
	.loc 3 86 10 is_stmt 0 view .LVU184
	movq	16(%rbp), %rdx	# node_16(D)->array_idx, node_16(D)->array_idx
	movl	$1, %edi	#,
	xorl	%eax, %eax	#
	leaq	.LC7(%rip), %rsi	#, tmp99
	call	__printf_chk@PLT	#
.LVL52:
	.loc 3 86 10 view .LVU185
.LBE92:
.LBE91:
	.loc 1 87 5 is_stmt 1 view .LVU186
.LBB93:
.LBI93:
	.loc 3 84 1 view .LVU187
.LBB94:
	.loc 3 86 3 view .LVU188
# /usr/include/x86_64-linux-gnu/bits/stdio2.h:86:   return __printf_chk (__USE_FORTIFY_LEVEL - 1, __fmt, __va_arg_pack ());
	.loc 3 86 10 is_stmt 0 view .LVU189
	leaq	.LC8(%rip), %rsi	#, tmp100
	movl	$1, %edi	#,
	xorl	%eax, %eax	#
	call	__printf_chk@PLT	#
.LVL53:
	.loc 3 86 10 view .LVU190
.LBE94:
.LBE93:
	.loc 1 88 5 is_stmt 1 view .LVU191
.LBB95:
	.loc 1 88 9 view .LVU192
	.loc 1 88 28 discriminator 2 view .LVU193
	movl	data_dims(%rip), %eax	# data_dims,
	testl	%eax, %eax	#
	je	.L51	#,
	xorl	%ebx, %ebx	# ivtmp.114
	leaq	.LC9(%rip), %r12	#, tmp114
.LVL54:
	.p2align 4,,10
	.p2align 3
.L52:
	.loc 1 88 45 discriminator 3 view .LVU194
.LBB96:
.LBI96:
	.loc 3 84 1 view .LVU195
.LBB97:
	.loc 3 86 3 view .LVU196
.LBE97:
.LBE96:
# src/kdtree.c:88:     for(unsigned int i=0; i<data_dims; ++i) printf(" %f ",node->data[i]);
	.loc 1 88 45 is_stmt 0 discriminator 3 view .LVU197
	movq	8(%rbp), %rax	# node_16(D)->data, node_16(D)->data
.LBB100:
.LBB98:
# /usr/include/x86_64-linux-gnu/bits/stdio2.h:86:   return __printf_chk (__USE_FORTIFY_LEVEL - 1, __fmt, __va_arg_pack ());
	.loc 3 86 10 view .LVU198
	movq	%r12, %rsi	# tmp114,
	movl	$1, %edi	#,
	vmovsd	(%rax,%rbx,8), %xmm0	# *_5, *_5
	movl	$1, %eax	#,
.LBE98:
.LBE100:
# src/kdtree.c:88:     for(unsigned int i=0; i<data_dims; ++i) printf(" %f ",node->data[i]);
	.loc 1 88 28 discriminator 2 view .LVU199
	addq	$1, %rbx	#, ivtmp.114
.LVL55:
.LBB101:
.LBB99:
# /usr/include/x86_64-linux-gnu/bits/stdio2.h:86:   return __printf_chk (__USE_FORTIFY_LEVEL - 1, __fmt, __va_arg_pack ());
	.loc 3 86 10 view .LVU200
	call	__printf_chk@PLT	#
.LVL56:
	.loc 3 86 10 view .LVU201
.LBE99:
.LBE101:
	.loc 1 88 40 is_stmt 1 discriminator 3 view .LVU202
	.loc 1 88 28 discriminator 2 view .LVU203
	cmpl	data_dims(%rip), %ebx	# data_dims, ivtmp.114
	jb	.L52	#,
.L51:
	.loc 1 88 28 is_stmt 0 discriminator 2 view .LVU204
.LBE95:
	.loc 1 89 5 is_stmt 1 view .LVU205
.LVL57:
.LBB102:
.LBI102:
	.loc 3 84 1 view .LVU206
.LBB103:
	.loc 3 86 3 view .LVU207
# /usr/include/x86_64-linux-gnu/bits/stdio2.h:86:   return __printf_chk (__USE_FORTIFY_LEVEL - 1, __fmt, __va_arg_pack ());
	.loc 3 86 10 is_stmt 0 view .LVU208
	movl	$10, %edi	#,
	call	putchar@PLT	#
.LVL58:
	.loc 3 86 10 view .LVU209
.LBE103:
.LBE102:
	.loc 1 90 5 is_stmt 1 view .LVU210
.LBB104:
.LBI104:
	.loc 3 84 1 view .LVU211
.LBB105:
	.loc 3 86 3 view .LVU212
# /usr/include/x86_64-linux-gnu/bits/stdio2.h:86:   return __printf_chk (__USE_FORTIFY_LEVEL - 1, __fmt, __va_arg_pack ());
	.loc 3 86 10 is_stmt 0 view .LVU213
	movq	24(%rbp), %rdx	# node_16(D)->parent, node_16(D)->parent
	movl	$1, %edi	#,
	xorl	%eax, %eax	#
	leaq	.LC10(%rip), %rsi	#, tmp105
	call	__printf_chk@PLT	#
.LVL59:
	.loc 3 86 10 view .LVU214
.LBE105:
.LBE104:
	.loc 1 91 5 is_stmt 1 view .LVU215
.LBB106:
.LBI106:
	.loc 3 84 1 view .LVU216
.LBB107:
	.loc 3 86 3 view .LVU217
# /usr/include/x86_64-linux-gnu/bits/stdio2.h:86:   return __printf_chk (__USE_FORTIFY_LEVEL - 1, __fmt, __va_arg_pack ());
	.loc 3 86 10 is_stmt 0 view .LVU218
	movq	32(%rbp), %rdx	# node_16(D)->lch, node_16(D)->lch
	movl	$1, %edi	#,
	xorl	%eax, %eax	#
	leaq	.LC11(%rip), %rsi	#, tmp107
	call	__printf_chk@PLT	#
.LVL60:
	.loc 3 86 10 view .LVU219
.LBE107:
.LBE106:
	.loc 1 92 5 is_stmt 1 view .LVU220
.LBB108:
.LBI108:
	.loc 3 84 1 view .LVU221
.LBB109:
	.loc 3 86 3 view .LVU222
# /usr/include/x86_64-linux-gnu/bits/stdio2.h:86:   return __printf_chk (__USE_FORTIFY_LEVEL - 1, __fmt, __va_arg_pack ());
	.loc 3 86 10 is_stmt 0 view .LVU223
	movq	40(%rbp), %rdx	# node_16(D)->rch, node_16(D)->rch
	movl	$1, %edi	#,
	xorl	%eax, %eax	#
	leaq	.LC12(%rip), %rsi	#, tmp109
	call	__printf_chk@PLT	#
.LVL61:
	.loc 3 86 10 view .LVU224
.LBE109:
.LBE108:
	.loc 1 93 5 is_stmt 1 view .LVU225
.LBB110:
.LBI110:
	.loc 3 84 1 view .LVU226
.LBB111:
	.loc 3 86 3 view .LVU227
# /usr/include/x86_64-linux-gnu/bits/stdio2.h:86:   return __printf_chk (__USE_FORTIFY_LEVEL - 1, __fmt, __va_arg_pack ());
	.loc 3 86 10 is_stmt 0 view .LVU228
	movl	0(%rbp), %edx	# node_16(D)->level, node_16(D)->level
	movl	$1, %edi	#,
	xorl	%eax, %eax	#
	leaq	.LC13(%rip), %rsi	#, tmp111
	call	__printf_chk@PLT	#
.LVL62:
	.loc 3 86 10 view .LVU229
.LBE111:
.LBE110:
	.loc 1 94 5 is_stmt 1 view .LVU230
.LBB112:
.LBI112:
	.loc 3 84 1 view .LVU231
.LBB113:
	.loc 3 86 3 view .LVU232
# /usr/include/x86_64-linux-gnu/bits/stdio2.h:86:   return __printf_chk (__USE_FORTIFY_LEVEL - 1, __fmt, __va_arg_pack ());
	.loc 3 86 10 is_stmt 0 view .LVU233
	movl	4(%rbp), %edx	# node_16(D)->split_var, node_16(D)->split_var
	movl	$1, %edi	#,
	xorl	%eax, %eax	#
	leaq	.LC14(%rip), %rsi	#, tmp113
	call	__printf_chk@PLT	#
.LVL63:
	.loc 3 86 10 view .LVU234
.LBE113:
.LBE112:
	.loc 1 95 5 is_stmt 1 view .LVU235
.LBB114:
.LBI114:
	.loc 3 84 1 view .LVU236
.LBB115:
	.loc 3 86 3 view .LVU237
.LBE115:
.LBE114:
# src/kdtree.c:96: }
	.loc 1 96 1 is_stmt 0 view .LVU238
	popq	%rbx	#
	.cfi_def_cfa_offset 24
.LBB118:
.LBB116:
# /usr/include/x86_64-linux-gnu/bits/stdio2.h:86:   return __printf_chk (__USE_FORTIFY_LEVEL - 1, __fmt, __va_arg_pack ());
	.loc 3 86 10 view .LVU239
	movl	$10, %edi	#,
.LBE116:
.LBE118:
# src/kdtree.c:96: }
	.loc 1 96 1 view .LVU240
	popq	%rbp	#
	.cfi_def_cfa_offset 16
.LVL64:
	.loc 1 96 1 view .LVU241
	popq	%r12	#
	.cfi_def_cfa_offset 8
.LBB119:
.LBB117:
# /usr/include/x86_64-linux-gnu/bits/stdio2.h:86:   return __printf_chk (__USE_FORTIFY_LEVEL - 1, __fmt, __va_arg_pack ());
	.loc 3 86 10 view .LVU242
	jmp	putchar@PLT	#
.LVL65:
.LBE117:
.LBE119:
	.cfi_endproc
.LFE60:
	.size	printKDnode, .-printKDnode
	.p2align 4
	.globl	partition
	.type	partition, @function
partition:
.LVL66:
.LFB61:
	.loc 1 101 1 is_stmt 1 view -0
	.cfi_startproc
	.loc 1 101 1 is_stmt 0 view .LVU244
	endbr64	
# src/kdtree.c:101: {
	.loc 1 101 1 view .LVU245
	movl	%esi, %eax	# tmp144, low
	.loc 1 102 5 is_stmt 1 view .LVU246
# src/kdtree.c:102:     kd_node* pivot = arr[high];
	.loc 1 102 25 is_stmt 0 view .LVU247
	movslq	%edx, %rsi	# high, high
.LVL67:
	.loc 1 102 25 view .LVU248
	leaq	(%rdi,%rsi,8), %r10	#, _3
# src/kdtree.c:104:     int i = (low - 1);
	.loc 1 104 9 view .LVU249
	leal	-1(%rax), %esi	#, i
# src/kdtree.c:102:     kd_node* pivot = arr[high];
	.loc 1 102 14 view .LVU250
	movq	(%r10), %r8	# *_3, pivot
.LVL68:
	.loc 1 104 5 is_stmt 1 view .LVU251
	.loc 1 105 5 view .LVU252
.LBB127:
	.loc 1 105 10 view .LVU253
	.loc 1 105 25 discriminator 1 view .LVU254
	cmpl	%eax, %edx	# low, high
	jle	.L56	#,
.LBB128:
.LBB129:
# src/kdtree.c:79:     FLOAT_TYPE res = a->data[var] - b->data[var];
	.loc 1 79 44 is_stmt 0 view .LVU255
	movq	8(%r8), %r8	# pivot_24->data, pivot_24->data
.LVL69:
# src/kdtree.c:79:     FLOAT_TYPE res = a->data[var] - b->data[var];
	.loc 1 79 29 view .LVU256
	movslq	%ecx, %rcx	# split_var, split_var
	.loc 1 79 29 view .LVU257
	subl	%eax, %edx	# low, tmp130
.LVL70:
	.loc 1 79 29 view .LVU258
.LBE129:
.LBE128:
# src/kdtree.c:106:         if (!cmpKDnodes(arr[j],pivot,split_var)) {
	.loc 1 106 12 discriminator 1 view .LVU259
	vxorpd	%xmm1, %xmm1, %xmm1	# tmp136
.LBB132:
.LBB130:
# src/kdtree.c:79:     FLOAT_TYPE res = a->data[var] - b->data[var];
	.loc 1 79 29 view .LVU260
	leaq	0(,%rcx,8), %r9	#, _33
# src/kdtree.c:79:     FLOAT_TYPE res = a->data[var] - b->data[var];
	.loc 1 79 44 view .LVU261
	vmovsd	(%r8,%rcx,8), %xmm2	# *_37, _38
	movslq	%eax, %r8	# low, _51
	addq	%r8, %rdx	# _51, tmp131
	leaq	(%rdi,%r8,8), %rcx	#, ivtmp.126
.LVL71:
	.loc 1 79 44 view .LVU262
	leaq	(%rdi,%rdx,8), %r8	#, _91
.LVL72:
	.p2align 4,,10
	.p2align 3
.L58:
	.loc 1 79 44 view .LVU263
.LBE130:
.LBE132:
	.loc 1 106 9 is_stmt 1 view .LVU264
# src/kdtree.c:106:         if (!cmpKDnodes(arr[j],pivot,split_var)) {
	.loc 1 106 14 is_stmt 0 view .LVU265
	movq	(%rcx), %rax	# MEM[(struct kd_node * *)_5], _75
.LVL73:
.LBB133:
.LBI128:
	.loc 1 77 5 is_stmt 1 view .LVU266
.LBB131:
	.loc 1 79 5 view .LVU267
	.loc 1 80 5 view .LVU268
# src/kdtree.c:79:     FLOAT_TYPE res = a->data[var] - b->data[var];
	.loc 1 79 29 is_stmt 0 view .LVU269
	movq	8(%rax), %rdx	# _75->data, _75->data
# src/kdtree.c:79:     FLOAT_TYPE res = a->data[var] - b->data[var];
	.loc 1 79 16 view .LVU270
	vmovsd	(%rdx,%r9), %xmm0	# *_73, *_73
	vsubsd	%xmm2, %xmm0, %xmm0	# _38, *_73, res
.LBE131:
.LBE133:
# src/kdtree.c:106:         if (!cmpKDnodes(arr[j],pivot,split_var)) {
	.loc 1 106 12 discriminator 1 view .LVU271
	vcomisd	%xmm1, %xmm0	# tmp136, res
	ja	.L57	#,
# src/kdtree.c:107:             i++;
	.loc 1 107 14 view .LVU272
	addl	$1, %esi	#, i
.LVL74:
	.loc 1 107 13 is_stmt 1 view .LVU273
	.loc 1 108 13 view .LVU274
# src/kdtree.c:108:             swap_kd_node_ptrs(arr + i, arr + j);
	.loc 1 108 35 is_stmt 0 view .LVU275
	movslq	%esi, %rdx	# i, i
# src/kdtree.c:108:             swap_kd_node_ptrs(arr + i, arr + j);
	.loc 1 108 13 view .LVU276
	leaq	(%rdi,%rdx,8), %rdx	#, _67
.LVL75:
.LBB134:
.LBI134:
	.loc 1 37 6 is_stmt 1 view .LVU277
.LBB135:
	.loc 1 38 5 view .LVU278
	.loc 1 39 5 view .LVU279
# src/kdtree.c:39:     tmp = *x;
	.loc 1 39 9 is_stmt 0 view .LVU280
	movq	(%rdx), %r11	# *_67, tmp
.LVL76:
	.loc 1 40 5 is_stmt 1 view .LVU281
# src/kdtree.c:40:     *x = *y;
	.loc 1 40 8 is_stmt 0 view .LVU282
	movq	%rax, (%rdx)	# _75, *_67
	.loc 1 41 5 is_stmt 1 view .LVU283
# src/kdtree.c:41:     *y = tmp;
	.loc 1 41 8 is_stmt 0 view .LVU284
	movq	%r11, (%rcx)	# tmp, MEM[(struct kd_node * *)_5]
.LVL77:
.L57:
	.loc 1 41 8 view .LVU285
.LBE135:
.LBE134:
	.loc 1 105 39 is_stmt 1 discriminator 2 view .LVU286
	.loc 1 105 25 discriminator 1 view .LVU287
	addq	$8, %rcx	#, ivtmp.126
	cmpq	%r8, %rcx	# _91, ivtmp.126
	jne	.L58	#,
.LBE127:
.LBB136:
.LBB137:
# src/kdtree.c:40:     *x = *y;
	.loc 1 40 10 is_stmt 0 view .LVU288
	movq	(%r10), %r8	# *_3, pivot
.LBE137:
.LBE136:
# src/kdtree.c:112:     return (i + 1);
	.loc 1 112 15 view .LVU289
	leal	1(%rsi), %eax	#, <retval>
.LVL78:
.L56:
	.loc 1 111 5 is_stmt 1 view .LVU290
# src/kdtree.c:111:     swap_kd_node_ptrs(arr + i + 1, arr + high);
	.loc 1 111 31 is_stmt 0 view .LVU291
	movslq	%esi, %rsi	# i, i
# src/kdtree.c:111:     swap_kd_node_ptrs(arr + i + 1, arr + high);
	.loc 1 111 5 view .LVU292
	leaq	8(%rdi,%rsi,8), %rdx	#, _15
.LVL79:
.LBB139:
.LBI136:
	.loc 1 37 6 is_stmt 1 view .LVU293
.LBB138:
	.loc 1 38 5 view .LVU294
	.loc 1 39 5 view .LVU295
# src/kdtree.c:39:     tmp = *x;
	.loc 1 39 9 is_stmt 0 view .LVU296
	movq	(%rdx), %rcx	# *_15, tmp
.LVL80:
	.loc 1 40 5 is_stmt 1 view .LVU297
# src/kdtree.c:40:     *x = *y;
	.loc 1 40 8 is_stmt 0 view .LVU298
	movq	%r8, (%rdx)	# pivot, *_15
	.loc 1 41 5 is_stmt 1 view .LVU299
# src/kdtree.c:41:     *y = tmp;
	.loc 1 41 8 is_stmt 0 view .LVU300
	movq	%rcx, (%r10)	# tmp, *_3
.LVL81:
	.loc 1 41 8 view .LVU301
.LBE138:
.LBE139:
	.loc 1 112 5 is_stmt 1 view .LVU302
# src/kdtree.c:113: }
	.loc 1 113 1 is_stmt 0 view .LVU303
	ret	
	.cfi_endproc
.LFE61:
	.size	partition, .-partition
	.p2align 4
	.globl	medianOfNodes
	.type	medianOfNodes, @function
medianOfNodes:
.LVL82:
.LFB62:
	.loc 1 117 1 is_stmt 1 view -0
	.cfi_startproc
	.loc 1 117 1 is_stmt 0 view .LVU305
	endbr64	
	.loc 1 119 5 is_stmt 1 view .LVU306
.LVL83:
	.loc 1 129 5 view .LVU307
# src/kdtree.c:129:     if(left == right) return left;
	.loc 1 129 30 is_stmt 0 discriminator 1 view .LVU308
	movl	%edx, %r8d	# right, <retval>
# src/kdtree.c:129:     if(left == right) return left;
	.loc 1 129 7 view .LVU309
	cmpl	%esi, %edx	# left, right
	je	.L80	#,
# src/kdtree.c:130:     if(left == (right - 1)){
	.loc 1 130 23 view .LVU310
	leal	-1(%rdx), %eax	#, tmp146
	movq	%rdi, %r9	# tmp182, a
	movl	%esi, %r10d	# tmp183, left
	movl	%edx, %r11d	# tmp184, right
	.loc 1 130 5 is_stmt 1 view .LVU311
# src/kdtree.c:130:     if(left == (right - 1)){
	.loc 1 130 7 is_stmt 0 view .LVU312
	cmpl	%esi, %eax	# left, tmp146
	je	.L63	#,
	.loc 1 139 17 is_stmt 1 view .LVU313
	cmpl	%esi, %edx	# left, right
	jl	.L83	#,
# src/kdtree.c:117: {
	.loc 1 117 1 is_stmt 0 view .LVU314
	pushq	%r14	#
	.cfi_def_cfa_offset 16
	.cfi_offset 14, -16
.LBB157:
.LBB158:
.LBB159:
.LBB160:
.LBB161:
.LBB162:
# src/kdtree.c:79:     FLOAT_TYPE res = a->data[var] - b->data[var];
	.loc 1 79 29 view .LVU315
	movslq	%ecx, %rdi	# split_var, split_var
.LVL84:
	.loc 1 79 29 view .LVU316
.LBE162:
.LBE161:
# src/kdtree.c:106:         if (!cmpKDnodes(arr[j],pivot,split_var)) {
	.loc 1 106 12 discriminator 1 view .LVU317
	vxorpd	%xmm2, %xmm2, %xmm2	# tmp181
.LBE160:
.LBE159:
.LBE158:
.LBE157:
# src/kdtree.c:117: {
	.loc 1 117 1 view .LVU318
	pushq	%r13	#
	.cfi_def_cfa_offset 24
	.cfi_offset 13, -24
.LBB184:
.LBB181:
.LBB178:
.LBB171:
.LBB166:
.LBB163:
# src/kdtree.c:79:     FLOAT_TYPE res = a->data[var] - b->data[var];
	.loc 1 79 29 view .LVU319
	salq	$3, %rdi	#, _55
	movslq	%edx, %r13	# right, right
.LBE163:
.LBE166:
.LBE171:
.LBE178:
.LBE181:
.LBE184:
# src/kdtree.c:117: {
	.loc 1 117 1 view .LVU320
	pushq	%r12	#
	.cfi_def_cfa_offset 32
	.cfi_offset 12, -32
	leal	-1(%rsi), %r12d	#, i
	pushq	%rbp	#
	.cfi_def_cfa_offset 40
	.cfi_offset 6, -40
# src/kdtree.c:119:     int k = left + ((right - left + 1)/2); 
	.loc 1 119 28 view .LVU321
	movl	%edx, %ebp	# right, tmp157
	subl	%esi, %ebp	# left, tmp157
# src/kdtree.c:117: {
	.loc 1 117 1 view .LVU322
	pushq	%rbx	#
	.cfi_def_cfa_offset 48
	.cfi_offset 3, -48
# src/kdtree.c:119:     int k = left + ((right - left + 1)/2); 
	.loc 1 119 35 view .LVU323
	addl	$1, %ebp	#, tmp158
# src/kdtree.c:119:     int k = left + ((right - left + 1)/2); 
	.loc 1 119 39 view .LVU324
	sarl	%ebp	# tmp159
# src/kdtree.c:119:     int k = left + ((right - left + 1)/2); 
	.loc 1 119 9 view .LVU325
	addl	%esi, %ebp	# left, k
.LVL85:
	.p2align 4,,10
	.p2align 3
.L73:
.LBB185:
	.loc 1 143 9 is_stmt 1 view .LVU326
.LBB182:
.LBI158:
	.loc 1 100 5 view .LVU327
.LBB179:
	.loc 1 102 5 view .LVU328
# src/kdtree.c:102:     kd_node* pivot = arr[high];
	.loc 1 102 25 is_stmt 0 view .LVU329
	leaq	(%r9,%r13,8), %rbx	#, _45
# src/kdtree.c:104:     int i = (low - 1);
	.loc 1 104 9 view .LVU330
	movl	%r12d, %esi	# i, i
# src/kdtree.c:102:     kd_node* pivot = arr[high];
	.loc 1 102 14 view .LVU331
	movq	(%rbx), %rax	# *_45, pivot
.LVL86:
	.loc 1 104 5 is_stmt 1 view .LVU332
	.loc 1 105 5 view .LVU333
.LBB172:
	.loc 1 105 10 view .LVU334
	.loc 1 105 25 discriminator 1 view .LVU335
	cmpl	%r11d, %r10d	# right, left
	jge	.L75	#,
.L84:
	.loc 1 105 25 is_stmt 0 discriminator 1 view .LVU336
	movl	%r11d, %edx	# right, tmp166
.LBB167:
.LBB164:
# src/kdtree.c:79:     FLOAT_TYPE res = a->data[var] - b->data[var];
	.loc 1 79 44 view .LVU337
	movq	8(%rax), %rax	# pivot_46->data, pivot_46->data
.LVL87:
	.loc 1 79 44 view .LVU338
	movslq	%r10d, %rcx	# left, _89
	subl	%r10d, %edx	# left, tmp166
	addq	%rcx, %rdx	# _89, tmp167
	vmovsd	(%rax,%rdi), %xmm1	# *_59, _60
	leaq	(%r9,%rcx,8), %rax	#, ivtmp.139
	leaq	(%r9,%rdx,8), %r8	#, _150
.LVL88:
	.p2align 4,,10
	.p2align 3
.L69:
	.loc 1 79 44 view .LVU339
.LBE164:
.LBE167:
	.loc 1 106 9 is_stmt 1 view .LVU340
# src/kdtree.c:106:         if (!cmpKDnodes(arr[j],pivot,split_var)) {
	.loc 1 106 14 is_stmt 0 view .LVU341
	movq	(%rax), %rdx	# MEM[(struct kd_node * *)_50], _127
.LVL89:
.LBB168:
.LBI161:
	.loc 1 77 5 is_stmt 1 view .LVU342
.LBB165:
	.loc 1 79 5 view .LVU343
	.loc 1 80 5 view .LVU344
# src/kdtree.c:79:     FLOAT_TYPE res = a->data[var] - b->data[var];
	.loc 1 79 29 is_stmt 0 view .LVU345
	movq	8(%rdx), %rcx	# _127->data, _127->data
# src/kdtree.c:79:     FLOAT_TYPE res = a->data[var] - b->data[var];
	.loc 1 79 16 view .LVU346
	vmovsd	(%rcx,%rdi), %xmm0	# *_125, *_125
	vsubsd	%xmm1, %xmm0, %xmm0	# _60, *_125, res
.LBE165:
.LBE168:
# src/kdtree.c:106:         if (!cmpKDnodes(arr[j],pivot,split_var)) {
	.loc 1 106 12 discriminator 1 view .LVU347
	vcomisd	%xmm2, %xmm0	# tmp181, res
	ja	.L68	#,
# src/kdtree.c:107:             i++;
	.loc 1 107 14 view .LVU348
	addl	$1, %esi	#, i
.LVL90:
	.loc 1 107 13 is_stmt 1 view .LVU349
	.loc 1 108 13 view .LVU350
# src/kdtree.c:108:             swap_kd_node_ptrs(arr + i, arr + j);
	.loc 1 108 35 is_stmt 0 view .LVU351
	movslq	%esi, %rcx	# i, i
# src/kdtree.c:108:             swap_kd_node_ptrs(arr + i, arr + j);
	.loc 1 108 13 view .LVU352
	leaq	(%r9,%rcx,8), %rcx	#, _119
.LVL91:
.LBB169:
.LBI169:
	.loc 1 37 6 is_stmt 1 view .LVU353
.LBB170:
	.loc 1 38 5 view .LVU354
	.loc 1 39 5 view .LVU355
# src/kdtree.c:39:     tmp = *x;
	.loc 1 39 9 is_stmt 0 view .LVU356
	movq	(%rcx), %r14	# *_119, tmp
.LVL92:
	.loc 1 40 5 is_stmt 1 view .LVU357
# src/kdtree.c:40:     *x = *y;
	.loc 1 40 8 is_stmt 0 view .LVU358
	movq	%rdx, (%rcx)	# _127, *_119
	.loc 1 41 5 is_stmt 1 view .LVU359
# src/kdtree.c:41:     *y = tmp;
	.loc 1 41 8 is_stmt 0 view .LVU360
	movq	%r14, (%rax)	# tmp, MEM[(struct kd_node * *)_50]
.LVL93:
.L68:
	.loc 1 41 8 view .LVU361
.LBE170:
.LBE169:
	.loc 1 105 39 is_stmt 1 discriminator 2 view .LVU362
	.loc 1 105 25 discriminator 1 view .LVU363
	addq	$8, %rax	#, ivtmp.139
	cmpq	%r8, %rax	# _150, ivtmp.139
	jne	.L69	#,
.LVL94:
	.loc 1 105 25 is_stmt 0 discriminator 1 view .LVU364
.LBE172:
.LBB173:
.LBB174:
# src/kdtree.c:40:     *x = *y;
	.loc 1 40 10 view .LVU365
	movq	(%rbx), %rax	# *_45, pivot
.LBE174:
.LBE173:
# src/kdtree.c:112:     return (i + 1);
	.loc 1 112 15 view .LVU366
	leal	1(%rsi), %r8d	#, <retval>
.LVL95:
.L67:
	.loc 1 111 5 is_stmt 1 view .LVU367
# src/kdtree.c:111:     swap_kd_node_ptrs(arr + i + 1, arr + high);
	.loc 1 111 31 is_stmt 0 view .LVU368
	movslq	%esi, %rcx	# i, i
# src/kdtree.c:111:     swap_kd_node_ptrs(arr + i + 1, arr + high);
	.loc 1 111 5 view .LVU369
	leaq	8(%r9,%rcx,8), %rdx	#, _73
.LVL96:
.LBB176:
.LBI173:
	.loc 1 37 6 is_stmt 1 view .LVU370
.LBB175:
	.loc 1 38 5 view .LVU371
	.loc 1 39 5 view .LVU372
# src/kdtree.c:39:     tmp = *x;
	.loc 1 39 9 is_stmt 0 view .LVU373
	movq	(%rdx), %r14	# *_73, tmp
.LVL97:
	.loc 1 40 5 is_stmt 1 view .LVU374
# src/kdtree.c:40:     *x = *y;
	.loc 1 40 8 is_stmt 0 view .LVU375
	movq	%rax, (%rdx)	# pivot, *_73
	.loc 1 41 5 is_stmt 1 view .LVU376
# src/kdtree.c:41:     *y = tmp;
	.loc 1 41 8 is_stmt 0 view .LVU377
	movq	%r14, (%rbx)	# tmp, *_45
.LVL98:
	.loc 1 41 8 view .LVU378
.LBE175:
.LBE176:
	.loc 1 112 5 is_stmt 1 view .LVU379
	.loc 1 112 5 is_stmt 0 view .LVU380
.LBE179:
.LBE182:
	.loc 1 147 9 is_stmt 1 view .LVU381
# src/kdtree.c:147:         if (pivotIndex == k)
	.loc 1 147 12 is_stmt 0 view .LVU382
	cmpl	%r8d, %ebp	# <retval>, k
	je	.L61	#,
	.loc 1 153 14 is_stmt 1 view .LVU383
# src/kdtree.c:153:         else if (pivotIndex > k)
	.loc 1 153 17 is_stmt 0 view .LVU384
	jl	.L70	#,
	.loc 1 158 13 is_stmt 1 view .LVU385
# src/kdtree.c:158:             left = pivotIndex + 1;
	.loc 1 158 18 is_stmt 0 view .LVU386
	leal	2(%rsi), %r10d	#, left
.LVL99:
	.loc 1 158 18 view .LVU387
.LBE185:
	.loc 1 139 17 is_stmt 1 view .LVU388
	cmpl	%r11d, %r10d	# right, left
	jg	.L72	#,
	leal	1(%rsi), %r12d	#, i
.LVL100:
.LBB186:
	.loc 1 143 9 view .LVU389
.LBB183:
	.loc 1 100 5 view .LVU390
.LBB180:
	.loc 1 102 5 view .LVU391
# src/kdtree.c:102:     kd_node* pivot = arr[high];
	.loc 1 102 25 is_stmt 0 view .LVU392
	leaq	(%r9,%r13,8), %rbx	#, _45
# src/kdtree.c:102:     kd_node* pivot = arr[high];
	.loc 1 102 14 view .LVU393
	movq	(%rbx), %rax	# *_45, pivot
.LVL101:
	.loc 1 104 5 is_stmt 1 view .LVU394
# src/kdtree.c:104:     int i = (low - 1);
	.loc 1 104 9 is_stmt 0 view .LVU395
	movl	%r12d, %esi	# i, i
.LVL102:
	.loc 1 105 5 is_stmt 1 view .LVU396
.LBB177:
	.loc 1 105 10 view .LVU397
	.loc 1 105 25 discriminator 1 view .LVU398
	cmpl	%r11d, %r10d	# right, left
	jl	.L84	#,
.LVL103:
.L75:
	.loc 1 105 25 is_stmt 0 discriminator 1 view .LVU399
	movl	%r10d, %r8d	# left, <retval>
	jmp	.L67	#
.LVL104:
	.p2align 4,,10
	.p2align 3
.L70:
	.loc 1 105 25 discriminator 1 view .LVU400
.LBE177:
.LBE180:
.LBE183:
.LBE186:
	.loc 1 139 17 is_stmt 1 view .LVU401
	cmpl	%esi, %r10d	# i, left
	jg	.L72	#,
	.loc 1 139 17 is_stmt 0 view .LVU402
	movl	%esi, %r11d	# i, right
	movq	%rcx, %r13	# i, right
	jmp	.L73	#
.LVL105:
.L72:
# src/kdtree.c:161:     return -1;
	.loc 1 161 12 view .LVU403
	movl	$-1, %r8d	#, <retval>
.L61:
# src/kdtree.c:162: }
	.loc 1 162 1 view .LVU404
	popq	%rbx	#
	.cfi_def_cfa_offset 40
	movl	%r8d, %eax	# <retval>,
	popq	%rbp	#
	.cfi_def_cfa_offset 32
	popq	%r12	#
	.cfi_def_cfa_offset 24
	popq	%r13	#
	.cfi_def_cfa_offset 16
	popq	%r14	#
	.cfi_def_cfa_offset 8
	ret	
.LVL106:
.L63:
	.cfi_restore 3
	.cfi_restore 6
	.cfi_restore 12
	.cfi_restore 13
	.cfi_restore 14
.LBB187:
.LBI187:
	.loc 1 116 5 is_stmt 1 view .LVU405
.LBB188:
	.loc 1 131 9 view .LVU406
# src/kdtree.c:131:         if(cmpKDnodes(a[left],a[right],split_var)) {swap_kd_node_ptrs(a + left, a + right);}
	.loc 1 131 24 is_stmt 0 view .LVU407
	cltq
.LVL107:
# src/kdtree.c:131:         if(cmpKDnodes(a[left],a[right],split_var)) {swap_kd_node_ptrs(a + left, a + right);}
	.loc 1 131 32 view .LVU408
	movslq	%edx, %rdx	# right, right
.LVL108:
# src/kdtree.c:131:         if(cmpKDnodes(a[left],a[right],split_var)) {swap_kd_node_ptrs(a + left, a + right);}
	.loc 1 131 11 discriminator 1 view .LVU409
	vxorpd	%xmm1, %xmm1, %xmm1	# tmp156
.LBB189:
.LBB190:
# src/kdtree.c:79:     FLOAT_TYPE res = a->data[var] - b->data[var];
	.loc 1 79 29 view .LVU410
	movslq	%ecx, %rcx	# split_var, split_var
	.loc 1 79 29 view .LVU411
.LBE190:
.LBE189:
# src/kdtree.c:131:         if(cmpKDnodes(a[left],a[right],split_var)) {swap_kd_node_ptrs(a + left, a + right);}
	.loc 1 131 24 view .LVU412
	leaq	(%r9,%rax,8), %rsi	#, _31
.LVL109:
# src/kdtree.c:131:         if(cmpKDnodes(a[left],a[right],split_var)) {swap_kd_node_ptrs(a + left, a + right);}
	.loc 1 131 32 view .LVU413
	leaq	(%rdi,%rdx,8), %rdx	#, _27
# src/kdtree.c:131:         if(cmpKDnodes(a[left],a[right],split_var)) {swap_kd_node_ptrs(a + left, a + right);}
	.loc 1 131 12 view .LVU414
	movq	(%rdx), %rdi	# *_27, _28
.LVL110:
	.loc 1 131 12 view .LVU415
	movq	(%rsi), %rax	# *_31, _32
.LVL111:
.LBB192:
.LBI189:
	.loc 1 77 5 is_stmt 1 view .LVU416
.LBB191:
	.loc 1 79 5 view .LVU417
	.loc 1 80 5 view .LVU418
# src/kdtree.c:79:     FLOAT_TYPE res = a->data[var] - b->data[var];
	.loc 1 79 44 is_stmt 0 view .LVU419
	movq	8(%rdi), %r8	# _28->data, _28->data
.LVL112:
# src/kdtree.c:79:     FLOAT_TYPE res = a->data[var] - b->data[var];
	.loc 1 79 29 view .LVU420
	movq	8(%rax), %r9	# _32->data, _32->data
.LVL113:
# src/kdtree.c:79:     FLOAT_TYPE res = a->data[var] - b->data[var];
	.loc 1 79 16 view .LVU421
	vmovsd	(%r9,%rcx,8), %xmm0	# *_36, *_36
	vsubsd	(%r8,%rcx,8), %xmm0, %xmm0	# *_39, *_36, res
.LBE191:
.LBE192:
# src/kdtree.c:131:         if(cmpKDnodes(a[left],a[right],split_var)) {swap_kd_node_ptrs(a + left, a + right);}
	.loc 1 131 11 discriminator 1 view .LVU422
	vcomisd	%xmm1, %xmm0	# tmp156, res
	jbe	.L65	#,
	.loc 1 131 53 is_stmt 1 discriminator 1 view .LVU423
.LVL114:
.LBB193:
.LBI193:
	.loc 1 37 6 view .LVU424
.LBB194:
	.loc 1 38 5 view .LVU425
	.loc 1 39 5 view .LVU426
	.loc 1 40 5 view .LVU427
# src/kdtree.c:40:     *x = *y;
	.loc 1 40 8 is_stmt 0 view .LVU428
	movq	%rdi, (%rsi)	# _28, *_31
	.loc 1 41 5 is_stmt 1 view .LVU429
# src/kdtree.c:41:     *y = tmp;
	.loc 1 41 8 is_stmt 0 view .LVU430
	movq	%rax, (%rdx)	# _32, *_27
.LVL115:
.L65:
	.loc 1 41 8 view .LVU431
.LBE194:
.LBE193:
.LBE188:
.LBE187:
# src/kdtree.c:129:     if(left == right) return left;
	.loc 1 129 30 discriminator 1 view .LVU432
	movl	%r11d, %r8d	# right, <retval>
.LVL116:
.L80:
# src/kdtree.c:162: }
	.loc 1 162 1 view .LVU433
	movl	%r8d, %eax	# <retval>,
	ret	
.LVL117:
.L83:
# src/kdtree.c:161:     return -1;
	.loc 1 161 12 view .LVU434
	movl	$-1, %r8d	#, <retval>
	jmp	.L80	#
	.cfi_endproc
.LFE62:
	.size	medianOfNodes, .-medianOfNodes
	.p2align 4
	.globl	make_tree
	.type	make_tree, @function
make_tree:
.LVL118:
.LFB63:
	.loc 1 165 1 is_stmt 1 view -0
	.cfi_startproc
	.loc 1 165 1 is_stmt 0 view .LVU436
	endbr64	
	.loc 1 166 5 is_stmt 1 view .LVU437
.LVL119:
	.loc 1 167 5 view .LVU438
# src/kdtree.c:165: {
	.loc 1 165 1 is_stmt 0 view .LVU439
	pushq	%r15	#
	.cfi_def_cfa_offset 16
	.cfi_offset 15, -16
# src/kdtree.c:167:     int split_var = level % data_dims; 
	.loc 1 167 27 view .LVU440
	movl	%r8d, %eax	# level, tmp106
# src/kdtree.c:165: {
	.loc 1 165 1 view .LVU441
	movslq	%edx, %r15	# tmp114,
# src/kdtree.c:167:     int split_var = level % data_dims; 
	.loc 1 167 27 view .LVU442
	xorl	%edx, %edx	# tmp105
.LVL120:
# src/kdtree.c:165: {
	.loc 1 165 1 view .LVU443
	pushq	%r14	#
	.cfi_def_cfa_offset 24
	.cfi_offset 14, -24
	pushq	%r13	#
	.cfi_def_cfa_offset 32
	.cfi_offset 13, -32
	pushq	%r12	#
	.cfi_def_cfa_offset 40
	.cfi_offset 12, -40
	pushq	%rbp	#
	.cfi_def_cfa_offset 48
	.cfi_offset 6, -48
	pushq	%rbx	#
	.cfi_def_cfa_offset 56
	.cfi_offset 3, -56
	subq	$24, %rsp	#,
	.cfi_def_cfa_offset 80
# src/kdtree.c:167:     int split_var = level % data_dims; 
	.loc 1 167 27 view .LVU444
	divl	data_dims(%rip)	# data_dims
.LVL121:
	.loc 1 170 5 is_stmt 1 view .LVU445
	.loc 1 171 5 view .LVU446
# src/kdtree.c:171:     if ((end - start) < 0) return 0;
	.loc 1 171 8 is_stmt 0 view .LVU447
	cmpl	%esi, %r15d	# start, end
	jl	.L89	#,
	movq	%rcx, %r13	# tmp115, parent
	movl	%r8d, %ebp	# tmp116, level
	movl	%edx, %r14d	# tmp105, tmp105
	.loc 1 172 5 is_stmt 1 view .LVU448
# src/kdtree.c:172:     if (end  == start) {
	.loc 1 172 8 is_stmt 0 view .LVU449
	je	.L91	#,
	.loc 1 181 5 is_stmt 1 view .LVU450
# src/kdtree.c:181:     median_idx = medianOfNodes(t, start, end, split_var);
	.loc 1 181 18 is_stmt 0 view .LVU451
	movl	%edx, %ecx	# tmp105,
.LVL122:
	.loc 1 181 18 view .LVU452
	movl	%r15d, %edx	# end,
.LVL123:
	.loc 1 181 18 view .LVU453
	movl	%esi, 8(%rsp)	# start, %sfp
	movq	%rdi, (%rsp)	# t, %sfp
	call	medianOfNodes	#
.LVL124:
	.loc 1 181 18 view .LVU454
	movl	%eax, %r12d	# tmp117, median_idx
.LVL125:
	.loc 1 183 5 is_stmt 1 view .LVU455
# src/kdtree.c:183:     if(median_idx > -1){
	.loc 1 183 7 is_stmt 0 view .LVU456
	testl	%eax, %eax	# median_idx
	js	.L89	#,
	.loc 1 184 9 is_stmt 1 view .LVU457
# src/kdtree.c:184:         n = t[median_idx];
	.loc 1 184 11 is_stmt 0 view .LVU458
	movq	(%rsp), %rdi	# %sfp, t
# src/kdtree.c:184:         n = t[median_idx];
	.loc 1 184 14 view .LVU459
	cltq
.LVL126:
# src/kdtree.c:190: 				n->lch  = make_tree(t, start, median_idx - 1, n, level + 1);
	.loc 1 190 15 view .LVU460
	movl	8(%rsp), %esi	# %sfp, start
	leal	1(%rbp), %r8d	#, _11
	leal	-1(%r12), %edx	#, tmp109
	movl	%r8d, 12(%rsp)	# _11, %sfp
# src/kdtree.c:184:         n = t[median_idx];
	.loc 1 184 11 view .LVU461
	movq	(%rdi,%rax,8), %rbx	# *_10, <retval>
.LVL127:
	.loc 1 190 5 is_stmt 1 view .LVU462
# src/kdtree.c:190: 				n->lch  = make_tree(t, start, median_idx - 1, n, level + 1);
	.loc 1 190 15 is_stmt 0 view .LVU463
	movq	%rbx, %rcx	# <retval>,
	call	make_tree	#
.LVL128:
# src/kdtree.c:192: 				n->rch = make_tree(t, median_idx + 1, end, n, level + 1);
	.loc 1 192 14 view .LVU464
	movl	12(%rsp), %r8d	# %sfp, _11
	movq	%rbx, %rcx	# <retval>,
	movl	%r15d, %edx	# end,
# src/kdtree.c:190: 				n->lch  = make_tree(t, start, median_idx - 1, n, level + 1);
	.loc 1 190 13 discriminator 1 view .LVU465
	movq	%rax, 32(%rbx)	# tmp118, n_27->lch
	.loc 1 192 5 is_stmt 1 view .LVU466
# src/kdtree.c:192: 				n->rch = make_tree(t, median_idx + 1, end, n, level + 1);
	.loc 1 192 14 is_stmt 0 view .LVU467
	movq	(%rsp), %rdi	# %sfp, t
	leal	1(%r12), %esi	#, tmp110
	call	make_tree	#
.LVL129:
# src/kdtree.c:195:         n -> split_var = split_var;
	.loc 1 195 24 view .LVU468
	movl	%r14d, 4(%rbx)	# tmp105, n_27->split_var
# src/kdtree.c:192: 				n->rch = make_tree(t, median_idx + 1, end, n, level + 1);
	.loc 1 192 12 discriminator 1 view .LVU469
	movq	%rax, 40(%rbx)	# tmp119, n_27->rch
	.loc 1 195 9 is_stmt 1 view .LVU470
	.loc 1 196 9 view .LVU471
# src/kdtree.c:196:         n->parent = parent;
	.loc 1 196 19 is_stmt 0 view .LVU472
	movq	%r13, 24(%rbx)	# parent, n_27->parent
	.loc 1 197 9 is_stmt 1 view .LVU473
# src/kdtree.c:197:         n->level = level;
	.loc 1 197 18 is_stmt 0 view .LVU474
	movl	%ebp, (%rbx)	# level, n_27->level
.LVL130:
.L85:
# src/kdtree.c:210: }
	.loc 1 210 1 view .LVU475
	addq	$24, %rsp	#,
	.cfi_remember_state
	.cfi_def_cfa_offset 56
	movq	%rbx, %rax	# <retval>,
	popq	%rbx	#
	.cfi_def_cfa_offset 48
	popq	%rbp	#
	.cfi_def_cfa_offset 40
	popq	%r12	#
	.cfi_def_cfa_offset 32
	popq	%r13	#
	.cfi_def_cfa_offset 24
	popq	%r14	#
	.cfi_def_cfa_offset 16
	popq	%r15	#
	.cfi_def_cfa_offset 8
.LVL131:
	.loc 1 210 1 view .LVU476
	ret	
.LVL132:
	.p2align 4,,10
	.p2align 3
.L89:
	.cfi_restore_state
# src/kdtree.c:171:     if ((end - start) < 0) return 0;
	.loc 1 171 35 discriminator 1 view .LVU477
	xorl	%ebx, %ebx	# <retval>
	jmp	.L85	#
.LVL133:
	.p2align 4,,10
	.p2align 3
.L91:
	.loc 1 173 9 is_stmt 1 view .LVU478
# src/kdtree.c:173:         n = t[start];
	.loc 1 173 11 is_stmt 0 view .LVU479
	movq	(%rdi,%r15,8), %rbx	# *_7, <retval>
.LVL134:
	.loc 1 174 9 is_stmt 1 view .LVU480
# src/kdtree.c:174:         n -> split_var = split_var;
	.loc 1 174 24 is_stmt 0 view .LVU481
	movl	%edx, 4(%rbx)	# tmp105, n_36->split_var
	.loc 1 175 9 is_stmt 1 view .LVU482
# src/kdtree.c:175:         n->parent = parent;
	.loc 1 175 19 is_stmt 0 view .LVU483
	movq	%rcx, 24(%rbx)	# parent, n_36->parent
	.loc 1 176 9 is_stmt 1 view .LVU484
# src/kdtree.c:176:         n->level = level;
	.loc 1 176 18 is_stmt 0 view .LVU485
	movl	%r8d, (%rbx)	# level, n_36->level
	.loc 1 177 9 is_stmt 1 view .LVU486
# src/kdtree.c:177:         n -> lch = NULL;
	.loc 1 177 18 is_stmt 0 view .LVU487
	movq	$0, 32(%rbx)	#, n_36->lch
	.loc 1 178 9 is_stmt 1 view .LVU488
# src/kdtree.c:178:         n -> rch = NULL;
	.loc 1 178 18 is_stmt 0 view .LVU489
	movq	$0, 40(%rbx)	#, n_36->rch
	.loc 1 179 9 is_stmt 1 view .LVU490
# src/kdtree.c:179:         return n;
	.loc 1 179 16 is_stmt 0 view .LVU491
	jmp	.L85	#
	.cfi_endproc
.LFE63:
	.size	make_tree, .-make_tree
	.p2align 4
	.type	make_tree.constprop.2, @function
make_tree.constprop.2:
.LVL135:
.LFB71:
	.loc 1 164 10 is_stmt 1 view -0
	.cfi_startproc
	.loc 1 166 5 view .LVU493
	.loc 1 167 5 view .LVU494
# src/kdtree.c:164: kd_node* make_tree(kd_node** t, int start, int end, kd_node* parent, int level)
	.loc 1 164 10 is_stmt 0 view .LVU495
	pushq	%r15	#
	.cfi_def_cfa_offset 16
	.cfi_offset 15, -16
# src/kdtree.c:167:     int split_var = level % data_dims; 
	.loc 1 167 27 view .LVU496
	movl	$2, %eax	#, tmp102
# src/kdtree.c:164: kd_node* make_tree(kd_node** t, int start, int end, kd_node* parent, int level)
	.loc 1 164 10 view .LVU497
	pushq	%r14	#
	.cfi_def_cfa_offset 24
	.cfi_offset 14, -24
	pushq	%r13	#
	.cfi_def_cfa_offset 32
	.cfi_offset 13, -32
	pushq	%r12	#
	.cfi_def_cfa_offset 40
	.cfi_offset 12, -40
	pushq	%rbp	#
	.cfi_def_cfa_offset 48
	.cfi_offset 6, -48
	movslq	%edx, %rbp	# tmp112,
# src/kdtree.c:167:     int split_var = level % data_dims; 
	.loc 1 167 27 view .LVU498
	xorl	%edx, %edx	# tmp103
.LVL136:
# src/kdtree.c:164: kd_node* make_tree(kd_node** t, int start, int end, kd_node* parent, int level)
	.loc 1 164 10 view .LVU499
	pushq	%rbx	#
	.cfi_def_cfa_offset 56
	.cfi_offset 3, -56
	subq	$24, %rsp	#,
	.cfi_def_cfa_offset 80
# src/kdtree.c:167:     int split_var = level % data_dims; 
	.loc 1 167 27 view .LVU500
	divl	data_dims(%rip)	# data_dims
.LVL137:
	.loc 1 170 5 is_stmt 1 view .LVU501
	.loc 1 171 5 view .LVU502
# src/kdtree.c:171:     if ((end - start) < 0) return 0;
	.loc 1 171 8 is_stmt 0 view .LVU503
	cmpl	%esi, %ebp	# start, end
	jl	.L96	#,
	movq	%rdi, %r12	# tmp110, t
	movq	%rcx, %r14	# tmp113, parent
	movl	%edx, %r15d	# tmp103, tmp103
	.loc 1 172 5 is_stmt 1 view .LVU504
# src/kdtree.c:172:     if (end  == start) {
	.loc 1 172 8 is_stmt 0 view .LVU505
	je	.L98	#,
# src/kdtree.c:181:     median_idx = medianOfNodes(t, start, end, split_var);
	.loc 1 181 18 view .LVU506
	movl	%edx, %ecx	# tmp103,
.LVL138:
	.loc 1 181 18 view .LVU507
	movl	%ebp, %edx	# end,
.LVL139:
	.loc 1 181 18 view .LVU508
	movl	%esi, %r13d	# tmp111, start
	.loc 1 181 5 is_stmt 1 view .LVU509
# src/kdtree.c:181:     median_idx = medianOfNodes(t, start, end, split_var);
	.loc 1 181 18 is_stmt 0 view .LVU510
	call	medianOfNodes	#
.LVL140:
	.loc 1 181 18 view .LVU511
	movl	%eax, %r9d	# tmp114, median_idx
.LVL141:
	.loc 1 183 5 is_stmt 1 view .LVU512
# src/kdtree.c:183:     if(median_idx > -1){
	.loc 1 183 7 is_stmt 0 view .LVU513
	testl	%eax, %eax	# median_idx
	js	.L96	#,
	.loc 1 184 9 is_stmt 1 view .LVU514
# src/kdtree.c:184:         n = t[median_idx];
	.loc 1 184 14 is_stmt 0 view .LVU515
	cltq
.LVL142:
# src/kdtree.c:190: 				n->lch  = make_tree(t, start, median_idx - 1, n, level + 1);
	.loc 1 190 15 view .LVU516
	leal	-1(%r9), %edx	#, tmp107
	movl	$3, %r8d	#,
	movl	%r13d, %esi	# start,
# src/kdtree.c:184:         n = t[median_idx];
	.loc 1 184 11 view .LVU517
	movq	(%r12,%rax,8), %rbx	# *_17, <retval>
.LVL143:
	.loc 1 190 5 is_stmt 1 view .LVU518
# src/kdtree.c:190: 				n->lch  = make_tree(t, start, median_idx - 1, n, level + 1);
	.loc 1 190 15 is_stmt 0 view .LVU519
	movq	%r12, %rdi	# t,
	movl	%r9d, 12(%rsp)	# median_idx, %sfp
	movq	%rbx, %rcx	# <retval>,
	call	make_tree	#
.LVL144:
# src/kdtree.c:192: 				n->rch = make_tree(t, median_idx + 1, end, n, level + 1);
	.loc 1 192 14 view .LVU520
	movl	12(%rsp), %r9d	# %sfp, median_idx
	movq	%rbx, %rcx	# <retval>,
	movl	%ebp, %edx	# end,
# src/kdtree.c:190: 				n->lch  = make_tree(t, start, median_idx - 1, n, level + 1);
	.loc 1 190 13 discriminator 1 view .LVU521
	movq	%rax, 32(%rbx)	# tmp115, n_18->lch
	.loc 1 192 5 is_stmt 1 view .LVU522
# src/kdtree.c:192: 				n->rch = make_tree(t, median_idx + 1, end, n, level + 1);
	.loc 1 192 14 is_stmt 0 view .LVU523
	movl	$3, %r8d	#,
	movq	%r12, %rdi	# t,
	leal	1(%r9), %esi	#, tmp108
	call	make_tree	#
.LVL145:
# src/kdtree.c:195:         n -> split_var = split_var;
	.loc 1 195 24 view .LVU524
	movl	%r15d, 4(%rbx)	# tmp103, n_18->split_var
# src/kdtree.c:192: 				n->rch = make_tree(t, median_idx + 1, end, n, level + 1);
	.loc 1 192 12 discriminator 1 view .LVU525
	movq	%rax, 40(%rbx)	# tmp116, n_18->rch
	.loc 1 195 9 is_stmt 1 view .LVU526
	.loc 1 196 9 view .LVU527
# src/kdtree.c:196:         n->parent = parent;
	.loc 1 196 19 is_stmt 0 view .LVU528
	movq	%r14, 24(%rbx)	# parent, n_18->parent
	.loc 1 197 9 is_stmt 1 view .LVU529
# src/kdtree.c:197:         n->level = level;
	.loc 1 197 18 is_stmt 0 view .LVU530
	movl	$2, (%rbx)	#, n_18->level
.LVL146:
.L92:
# src/kdtree.c:210: }
	.loc 1 210 1 view .LVU531
	addq	$24, %rsp	#,
	.cfi_remember_state
	.cfi_def_cfa_offset 56
	movq	%rbx, %rax	# <retval>,
	popq	%rbx	#
	.cfi_def_cfa_offset 48
	popq	%rbp	#
	.cfi_def_cfa_offset 40
.LVL147:
	.loc 1 210 1 view .LVU532
	popq	%r12	#
	.cfi_def_cfa_offset 32
	popq	%r13	#
	.cfi_def_cfa_offset 24
	popq	%r14	#
	.cfi_def_cfa_offset 16
	popq	%r15	#
	.cfi_def_cfa_offset 8
	ret	
.LVL148:
	.p2align 4,,10
	.p2align 3
.L96:
	.cfi_restore_state
# src/kdtree.c:171:     if ((end - start) < 0) return 0;
	.loc 1 171 35 discriminator 1 view .LVU533
	xorl	%ebx, %ebx	# <retval>
	jmp	.L92	#
.LVL149:
	.p2align 4,,10
	.p2align 3
.L98:
	.loc 1 173 9 is_stmt 1 view .LVU534
# src/kdtree.c:173:         n = t[start];
	.loc 1 173 11 is_stmt 0 view .LVU535
	movq	(%rdi,%rbp,8), %rbx	# *_11, <retval>
.LVL150:
	.loc 1 174 9 is_stmt 1 view .LVU536
# src/kdtree.c:174:         n -> split_var = split_var;
	.loc 1 174 24 is_stmt 0 view .LVU537
	movl	%edx, 4(%rbx)	# tmp103, n_12->split_var
	.loc 1 175 9 is_stmt 1 view .LVU538
# src/kdtree.c:175:         n->parent = parent;
	.loc 1 175 19 is_stmt 0 view .LVU539
	movq	%rcx, 24(%rbx)	# parent, n_12->parent
	.loc 1 176 9 is_stmt 1 view .LVU540
# src/kdtree.c:176:         n->level = level;
	.loc 1 176 18 is_stmt 0 view .LVU541
	movl	$2, (%rbx)	#, n_12->level
	.loc 1 177 9 is_stmt 1 view .LVU542
# src/kdtree.c:177:         n -> lch = NULL;
	.loc 1 177 18 is_stmt 0 view .LVU543
	movq	$0, 32(%rbx)	#, n_12->lch
	.loc 1 178 9 is_stmt 1 view .LVU544
# src/kdtree.c:178:         n -> rch = NULL;
	.loc 1 178 18 is_stmt 0 view .LVU545
	movq	$0, 40(%rbx)	#, n_12->rch
	.loc 1 179 9 is_stmt 1 view .LVU546
# src/kdtree.c:179:         return n;
	.loc 1 179 16 is_stmt 0 view .LVU547
	jmp	.L92	#
	.cfi_endproc
.LFE71:
	.size	make_tree.constprop.2, .-make_tree.constprop.2
	.p2align 4
	.type	make_tree.constprop.1, @function
make_tree.constprop.1:
.LVL151:
.LFB72:
	.loc 1 164 10 is_stmt 1 view -0
	.cfi_startproc
	.loc 1 166 5 view .LVU549
	.loc 1 167 5 view .LVU550
# src/kdtree.c:164: kd_node* make_tree(kd_node** t, int start, int end, kd_node* parent, int level)
	.loc 1 164 10 is_stmt 0 view .LVU551
	pushq	%r15	#
	.cfi_def_cfa_offset 16
	.cfi_offset 15, -16
# src/kdtree.c:167:     int split_var = level % data_dims; 
	.loc 1 167 27 view .LVU552
	movl	$1, %eax	#, tmp102
# src/kdtree.c:164: kd_node* make_tree(kd_node** t, int start, int end, kd_node* parent, int level)
	.loc 1 164 10 view .LVU553
	pushq	%r14	#
	.cfi_def_cfa_offset 24
	.cfi_offset 14, -24
	pushq	%r13	#
	.cfi_def_cfa_offset 32
	.cfi_offset 13, -32
	pushq	%r12	#
	.cfi_def_cfa_offset 40
	.cfi_offset 12, -40
	pushq	%rbp	#
	.cfi_def_cfa_offset 48
	.cfi_offset 6, -48
	movslq	%edx, %rbp	# tmp112,
# src/kdtree.c:167:     int split_var = level % data_dims; 
	.loc 1 167 27 view .LVU554
	xorl	%edx, %edx	# tmp103
.LVL152:
# src/kdtree.c:164: kd_node* make_tree(kd_node** t, int start, int end, kd_node* parent, int level)
	.loc 1 164 10 view .LVU555
	pushq	%rbx	#
	.cfi_def_cfa_offset 56
	.cfi_offset 3, -56
	subq	$24, %rsp	#,
	.cfi_def_cfa_offset 80
# src/kdtree.c:167:     int split_var = level % data_dims; 
	.loc 1 167 27 view .LVU556
	divl	data_dims(%rip)	# data_dims
.LVL153:
	.loc 1 170 5 is_stmt 1 view .LVU557
	.loc 1 171 5 view .LVU558
# src/kdtree.c:171:     if ((end - start) < 0) return 0;
	.loc 1 171 8 is_stmt 0 view .LVU559
	cmpl	%esi, %ebp	# start, end
	jl	.L103	#,
	movq	%rdi, %r12	# tmp110, t
	movq	%rcx, %r14	# tmp113, parent
	movl	%edx, %r15d	# tmp103, tmp103
	.loc 1 172 5 is_stmt 1 view .LVU560
# src/kdtree.c:172:     if (end  == start) {
	.loc 1 172 8 is_stmt 0 view .LVU561
	je	.L105	#,
# src/kdtree.c:181:     median_idx = medianOfNodes(t, start, end, split_var);
	.loc 1 181 18 view .LVU562
	movl	%edx, %ecx	# tmp103,
.LVL154:
	.loc 1 181 18 view .LVU563
	movl	%ebp, %edx	# end,
.LVL155:
	.loc 1 181 18 view .LVU564
	movl	%esi, %r13d	# tmp111, start
	.loc 1 181 5 is_stmt 1 view .LVU565
# src/kdtree.c:181:     median_idx = medianOfNodes(t, start, end, split_var);
	.loc 1 181 18 is_stmt 0 view .LVU566
	call	medianOfNodes	#
.LVL156:
	.loc 1 181 18 view .LVU567
	movl	%eax, %r8d	# tmp114, median_idx
.LVL157:
	.loc 1 183 5 is_stmt 1 view .LVU568
# src/kdtree.c:183:     if(median_idx > -1){
	.loc 1 183 7 is_stmt 0 view .LVU569
	testl	%eax, %eax	# median_idx
	js	.L103	#,
	.loc 1 184 9 is_stmt 1 view .LVU570
# src/kdtree.c:184:         n = t[median_idx];
	.loc 1 184 14 is_stmt 0 view .LVU571
	cltq
.LVL158:
# src/kdtree.c:190: 				n->lch  = make_tree(t, start, median_idx - 1, n, level + 1);
	.loc 1 190 15 view .LVU572
	leal	-1(%r8), %edx	#, tmp107
	movl	%r13d, %esi	# start,
	movq	%r12, %rdi	# t,
# src/kdtree.c:184:         n = t[median_idx];
	.loc 1 184 11 view .LVU573
	movq	(%r12,%rax,8), %rbx	# *_17, <retval>
.LVL159:
	.loc 1 190 5 is_stmt 1 view .LVU574
# src/kdtree.c:190: 				n->lch  = make_tree(t, start, median_idx - 1, n, level + 1);
	.loc 1 190 15 is_stmt 0 view .LVU575
	movl	%r8d, 12(%rsp)	# median_idx, %sfp
	movq	%rbx, %rcx	# <retval>,
	call	make_tree.constprop.2	#
.LVL160:
# src/kdtree.c:192: 				n->rch = make_tree(t, median_idx + 1, end, n, level + 1);
	.loc 1 192 14 view .LVU576
	movl	12(%rsp), %r8d	# %sfp, median_idx
	movq	%rbx, %rcx	# <retval>,
	movl	%ebp, %edx	# end,
# src/kdtree.c:190: 				n->lch  = make_tree(t, start, median_idx - 1, n, level + 1);
	.loc 1 190 13 discriminator 1 view .LVU577
	movq	%rax, 32(%rbx)	# tmp115, n_18->lch
	.loc 1 192 5 is_stmt 1 view .LVU578
# src/kdtree.c:192: 				n->rch = make_tree(t, median_idx + 1, end, n, level + 1);
	.loc 1 192 14 is_stmt 0 view .LVU579
	movq	%r12, %rdi	# t,
	leal	1(%r8), %esi	#, tmp108
	call	make_tree.constprop.2	#
.LVL161:
# src/kdtree.c:195:         n -> split_var = split_var;
	.loc 1 195 24 view .LVU580
	movl	%r15d, 4(%rbx)	# tmp103, n_18->split_var
# src/kdtree.c:192: 				n->rch = make_tree(t, median_idx + 1, end, n, level + 1);
	.loc 1 192 12 discriminator 1 view .LVU581
	movq	%rax, 40(%rbx)	# tmp116, n_18->rch
	.loc 1 195 9 is_stmt 1 view .LVU582
	.loc 1 196 9 view .LVU583
# src/kdtree.c:196:         n->parent = parent;
	.loc 1 196 19 is_stmt 0 view .LVU584
	movq	%r14, 24(%rbx)	# parent, n_18->parent
	.loc 1 197 9 is_stmt 1 view .LVU585
# src/kdtree.c:197:         n->level = level;
	.loc 1 197 18 is_stmt 0 view .LVU586
	movl	$1, (%rbx)	#, n_18->level
.LVL162:
.L99:
# src/kdtree.c:210: }
	.loc 1 210 1 view .LVU587
	addq	$24, %rsp	#,
	.cfi_remember_state
	.cfi_def_cfa_offset 56
	movq	%rbx, %rax	# <retval>,
	popq	%rbx	#
	.cfi_def_cfa_offset 48
	popq	%rbp	#
	.cfi_def_cfa_offset 40
.LVL163:
	.loc 1 210 1 view .LVU588
	popq	%r12	#
	.cfi_def_cfa_offset 32
	popq	%r13	#
	.cfi_def_cfa_offset 24
	popq	%r14	#
	.cfi_def_cfa_offset 16
	popq	%r15	#
	.cfi_def_cfa_offset 8
	ret	
.LVL164:
	.p2align 4,,10
	.p2align 3
.L103:
	.cfi_restore_state
# src/kdtree.c:171:     if ((end - start) < 0) return 0;
	.loc 1 171 35 discriminator 1 view .LVU589
	xorl	%ebx, %ebx	# <retval>
	jmp	.L99	#
.LVL165:
	.p2align 4,,10
	.p2align 3
.L105:
	.loc 1 173 9 is_stmt 1 view .LVU590
# src/kdtree.c:173:         n = t[start];
	.loc 1 173 11 is_stmt 0 view .LVU591
	movq	(%rdi,%rbp,8), %rbx	# *_11, <retval>
.LVL166:
	.loc 1 174 9 is_stmt 1 view .LVU592
# src/kdtree.c:174:         n -> split_var = split_var;
	.loc 1 174 24 is_stmt 0 view .LVU593
	movl	%edx, 4(%rbx)	# tmp103, n_12->split_var
	.loc 1 175 9 is_stmt 1 view .LVU594
# src/kdtree.c:175:         n->parent = parent;
	.loc 1 175 19 is_stmt 0 view .LVU595
	movq	%rcx, 24(%rbx)	# parent, n_12->parent
	.loc 1 176 9 is_stmt 1 view .LVU596
# src/kdtree.c:176:         n->level = level;
	.loc 1 176 18 is_stmt 0 view .LVU597
	movl	$1, (%rbx)	#, n_12->level
	.loc 1 177 9 is_stmt 1 view .LVU598
# src/kdtree.c:177:         n -> lch = NULL;
	.loc 1 177 18 is_stmt 0 view .LVU599
	movq	$0, 32(%rbx)	#, n_12->lch
	.loc 1 178 9 is_stmt 1 view .LVU600
# src/kdtree.c:178:         n -> rch = NULL;
	.loc 1 178 18 is_stmt 0 view .LVU601
	movq	$0, 40(%rbx)	#, n_12->rch
	.loc 1 179 9 is_stmt 1 view .LVU602
# src/kdtree.c:179:         return n;
	.loc 1 179 16 is_stmt 0 view .LVU603
	jmp	.L99	#
	.cfi_endproc
.LFE72:
	.size	make_tree.constprop.1, .-make_tree.constprop.1
	.p2align 4
	.globl	KNN_sub_tree_search
	.type	KNN_sub_tree_search, @function
KNN_sub_tree_search:
.LVL167:
.LFB66:
	.loc 1 223 1 is_stmt 1 view -0
	.cfi_startproc
	.loc 1 223 1 is_stmt 0 view .LVU605
	endbr64	
	leaq	8(%rsp), %r10	#,
	.cfi_def_cfa 10, 0
	andq	$-32, %rsp	#,
	pushq	-8(%r10)	#
	pushq	%rbp	#
	movq	%rsp, %rbp	#,
	.cfi_escape 0x10,0x6,0x2,0x76,0
	pushq	%r13	#
	.cfi_escape 0x10,0xd,0x2,0x76,0x78
	movq	%rdx, %r13	# tmp200, H
	pushq	%r12	#
	.cfi_escape 0x10,0xc,0x2,0x76,0x70
	movq	%rsi, %r12	# tmp199, kdtree_root
	pushq	%r10	#
	.cfi_escape 0xf,0x3,0x76,0x68,0x6
	pushq	%rbx	#
	.cfi_escape 0x10,0x3,0x2,0x76,0x60
	movq	%rdi, %rbx	# tmp198, point
	subq	$48, %rsp	#,
.LVL168:
.L107:
	.loc 1 225 5 is_stmt 1 view .LVU606
.LBB195:
.LBB196:
.LBB197:
# src/kdtree.c:21:     for(unsigned int i = 0; i<data_dims; ++i){
	.loc 1 21 30 is_stmt 0 discriminator 1 view .LVU607
	movl	data_dims(%rip), %ecx	# data_dims, data_dims.0_51
.LBE197:
.LBE196:
.LBE195:
# src/kdtree.c:225:     FLOAT_TYPE current_distance = euclidean_distance(point, kdtree_root -> data);
	.loc 1 225 35 view .LVU608
	movq	8(%r12), %rdx	# kdtree_root_18->data, _1
.LVL169:
.LBB210:
.LBI195:
	.loc 1 19 12 is_stmt 1 view .LVU609
.LBB206:
	.loc 1 20 5 view .LVU610
	.loc 1 21 5 view .LVU611
.LBB201:
	.loc 1 21 9 view .LVU612
	.loc 1 21 30 discriminator 1 view .LVU613
	testl	%ecx, %ecx	# data_dims.0_51
	je	.L124	#,
.L143:
	.loc 1 21 30 is_stmt 0 discriminator 1 view .LVU614
	leal	-1(%rcx), %eax	#, tmp157
	cmpl	$2, %eax	#, tmp157
	jbe	.L125	#,
	movl	%ecx, %esi	# data_dims.0_51, bnd.156
	xorl	%eax, %eax	# ivtmp.188
.LBE201:
# src/kdtree.c:20:     FLOAT_TYPE d = 0;
	.loc 1 20 16 view .LVU615
	vxorpd	%xmm0, %xmm0, %xmm0	# d
	shrl	$2, %esi	#,
	salq	$5, %rsi	#, _40
.LVL170:
	.p2align 4,,10
	.p2align 3
.L110:
.LBB202:
.LBB198:
	.loc 1 22 9 is_stmt 1 view .LVU616
# src/kdtree.c:22:         FLOAT_TYPE dd = (p1[i] - p2[i]);
	.loc 1 22 20 is_stmt 0 view .LVU617
	vmovupd	(%rbx,%rax), %ymm4	# MEM <vector(4) double> [(double *)point_19(D) + ivtmp.188_43 * 1], tmp203
	vsubpd	(%rdx,%rax), %ymm4, %ymm1	# MEM <vector(4) double> [(double *)_1 + ivtmp.188_43 * 1], tmp203, vect_dd_42.165
.LVL171:
	.loc 1 23 9 is_stmt 1 view .LVU618
	addq	$32, %rax	#, ivtmp.188
# src/kdtree.c:23:         d += dd*dd;
	.loc 1 23 16 is_stmt 0 view .LVU619
	vmulpd	%ymm1, %ymm1, %ymm1	# vect_dd_42.165, vect_dd_42.165, vect__43.166
	vaddsd	%xmm1, %xmm0, %xmm0	# stmp_d_45.167, d, stmp_d_45.167
.LVL172:
	.loc 1 23 16 view .LVU620
	vunpckhpd	%xmm1, %xmm1, %xmm2	# tmp162, stmp_d_45.167
	vextractf128	$0x1, %ymm1, %xmm1	# vect__43.166, tmp164
	vaddsd	%xmm0, %xmm2, %xmm2	# stmp_d_45.167, stmp_d_45.167, stmp_d_45.167
# src/kdtree.c:23:         d += dd*dd;
	.loc 1 23 11 view .LVU621
	vaddsd	%xmm2, %xmm1, %xmm0	# stmp_d_45.167, stmp_d_45.167, stmp_d_45.167
	vunpckhpd	%xmm1, %xmm1, %xmm1	# tmp164, stmp_d_45.167
	vaddsd	%xmm1, %xmm0, %xmm0	# stmp_d_45.167, stmp_d_45.167, d
.LVL173:
	.loc 1 23 11 view .LVU622
.LBE198:
	.loc 1 21 42 is_stmt 1 discriminator 3 view .LVU623
	.loc 1 21 30 discriminator 1 view .LVU624
	cmpq	%rax, %rsi	# ivtmp.188, _40
	jne	.L110	#,
	.loc 1 21 30 is_stmt 0 discriminator 1 view .LVU625
	testb	$3, %cl	#, data_dims.0_51
	je	.L136	#,
	movl	%ecx, %eax	# data_dims.0_51, niters_vector_mult_vf.157
	andl	$-4, %eax	#,
	vzeroupper
.LVL174:
.L109:
	.loc 1 21 30 discriminator 1 view .LVU626
	subl	%eax, %ecx	# niters_vector_mult_vf.157, niters.168
	cmpl	$1, %ecx	#, niters.168
	je	.L112	#,
	movl	%eax, %esi	# niters_vector_mult_vf.157, niters_vector_mult_vf.157
.LVL175:
.LBB199:
	.loc 1 22 9 is_stmt 1 view .LVU627
# src/kdtree.c:22:         FLOAT_TYPE dd = (p1[i] - p2[i]);
	.loc 1 22 20 is_stmt 0 view .LVU628
	vmovupd	(%rbx,%rsi,8), %xmm5	# MEM <vector(2) double> [(double *)vectp_point.173_83], tmp205
	vsubpd	(%rdx,%rsi,8), %xmm5, %xmm1	# MEM <vector(2) double> [(double *)vectp.176_77], tmp205, vect_dd_136.178
.LVL176:
	.loc 1 23 9 is_stmt 1 view .LVU629
# src/kdtree.c:23:         d += dd*dd;
	.loc 1 23 16 is_stmt 0 view .LVU630
	vmulpd	%xmm1, %xmm1, %xmm1	# vect_dd_136.178, vect_dd_136.178, vect__135.179
	vaddsd	%xmm0, %xmm1, %xmm0	# d, stmp_d_134.180, stmp_d_134.180
.LVL177:
# src/kdtree.c:23:         d += dd*dd;
	.loc 1 23 11 view .LVU631
	vunpckhpd	%xmm1, %xmm1, %xmm1	# vect__135.179, stmp_d_134.180
	vaddsd	%xmm0, %xmm1, %xmm0	# stmp_d_134.180, stmp_d_134.180, d
.LVL178:
	.loc 1 23 11 view .LVU632
.LBE199:
	.loc 1 21 42 is_stmt 1 discriminator 3 view .LVU633
	.loc 1 21 30 discriminator 1 view .LVU634
	testb	$1, %cl	#, niters.168
	je	.L108	#,
	.loc 1 21 30 is_stmt 0 discriminator 1 view .LVU635
	andl	$-2, %ecx	#, niters_vector_mult_vf.170
	addl	%ecx, %eax	# niters_vector_mult_vf.170,
.LVL179:
.L112:
.LBB200:
	.loc 1 22 9 is_stmt 1 view .LVU636
# src/kdtree.c:22:         FLOAT_TYPE dd = (p1[i] - p2[i]);
	.loc 1 22 20 is_stmt 0 view .LVU637
	vmovsd	(%rbx,%rax,8), %xmm1	# *_99, *_99
	vsubsd	(%rdx,%rax,8), %xmm1, %xmm1	# *_97, *_99, dd
.LVL180:
	.loc 1 23 9 is_stmt 1 view .LVU638
# src/kdtree.c:23:         d += dd*dd;
	.loc 1 23 16 is_stmt 0 view .LVU639
	vmulsd	%xmm1, %xmm1, %xmm1	# dd, dd, tmp177
.LVL181:
# src/kdtree.c:23:         d += dd*dd;
	.loc 1 23 11 view .LVU640
	vaddsd	%xmm1, %xmm0, %xmm0	# tmp177, d, d
.LVL182:
	.loc 1 23 11 view .LVU641
.LBE200:
	.loc 1 21 42 is_stmt 1 discriminator 3 view .LVU642
	.loc 1 21 30 discriminator 1 view .LVU643
.L108:
	.loc 1 21 30 is_stmt 0 discriminator 1 view .LVU644
.LBE202:
	.loc 1 25 2 is_stmt 1 view .LVU645
	.loc 1 25 2 is_stmt 0 view .LVU646
.LBE206:
.LBE210:
	.loc 1 226 5 is_stmt 1 view .LVU647
.LBB211:
.LBI211:
	.loc 1 212 19 view .LVU648
.LBB212:
	.loc 1 214 5 view .LVU649
# src/kdtree.c:214:     return p1[var] - p2[var];
	.loc 1 214 14 is_stmt 0 view .LVU650
	movslq	4(%r12), %rax	# kdtree_root_18->split_var, kdtree_root_18->split_var
.LBE212:
.LBE211:
# src/kdtree.c:227:     insertMaxHeap(H, current_distance, kdtree_root -> array_idx);
	.loc 1 227 5 view .LVU651
	movq	16(%r12), %rsi	# kdtree_root_18->array_idx, kdtree_root_18->array_idx
	movq	%r13, %rdi	# H,
.LBB214:
.LBB213:
# src/kdtree.c:214:     return p1[var] - p2[var];
	.loc 1 214 20 view .LVU652
	vmovsd	(%rbx,%rax,8), %xmm1	# *_30, *_30
	vsubsd	(%rdx,%rax,8), %xmm1, %xmm1	# *_32, *_30, _34
	vmovsd	%xmm1, -56(%rbp)	# _34, %sfp
.LVL183:
	.loc 1 214 20 view .LVU653
.LBE213:
.LBE214:
	.loc 1 227 5 is_stmt 1 view .LVU654
	call	insertMaxHeap@PLT	#
.LVL184:
	.loc 1 229 5 view .LVU655
	.loc 1 233 5 view .LVU656
	vmovsd	-56(%rbp), %xmm1	# %sfp, _34
	vxorpd	%xmm6, %xmm6, %xmm6	# tmp206
	vcomisd	%xmm6, %xmm1	# tmp206, _34
	jbe	.L140	#,
	.loc 1 240 13 view .LVU657
# src/kdtree.c:240:             if(kdtree_root -> rch) KNN_sub_tree_search(point, kdtree_root -> rch, H);
	.loc 1 240 28 is_stmt 0 view .LVU658
	movq	40(%r12), %rsi	# kdtree_root_18->rch, _7
# src/kdtree.c:240:             if(kdtree_root -> rch) KNN_sub_tree_search(point, kdtree_root -> rch, H);
	.loc 1 240 15 view .LVU659
	testq	%rsi, %rsi	# _7
	je	.L141	#,
# src/kdtree.c:240:             if(kdtree_root -> rch) KNN_sub_tree_search(point, kdtree_root -> rch, H);
	.loc 1 240 36 discriminator 1 view .LVU660
	movq	%r13, %rdx	# H,
	movq	%rbx, %rdi	# point,
	vmovsd	%xmm1, -56(%rbp)	# _34, %sfp
.LVL185:
	.loc 1 240 36 is_stmt 1 discriminator 1 view .LVU661
	call	KNN_sub_tree_search	#
.LVL186:
	.loc 1 246 5 view .LVU662
	.loc 1 247 5 view .LVU663
	.loc 1 250 5 view .LVU664
# src/kdtree.c:247:     int c   = max_d > (hp_distance * hp_distance);
	.loc 1 247 36 is_stmt 0 view .LVU665
	vmovsd	-56(%rbp), %xmm1	# %sfp, _34
# src/kdtree.c:246:     FLOAT_TYPE max_d = H -> data[0].value;
	.loc 1 246 16 view .LVU666
	movq	16(%r13), %rax	# H_22(D)->data, H_22(D)->data
# src/kdtree.c:247:     int c   = max_d > (hp_distance * hp_distance);
	.loc 1 247 36 view .LVU667
	vmulsd	%xmm1, %xmm1, %xmm1	# _34, _34, tmp193
# src/kdtree.c:250:     if(c || (H -> count) < (H -> N))
	.loc 1 250 7 view .LVU668
	vmovsd	(%rax), %xmm0	#* H_22(D)->data, _60->value
	vcomisd	%xmm1, %xmm0	# tmp193, _60->value
	ja	.L122	#,
.LVL187:
.L123:
# src/kdtree.c:250:     if(c || (H -> count) < (H -> N))
	.loc 1 250 10 discriminator 1 view .LVU669
	movq	0(%r13), %rax	# H_22(D)->N, tmp208
	cmpq	%rax, 8(%r13)	# tmp208, H_22(D)->count
	jnb	.L137	#,
.L122:
	.loc 1 260 17 is_stmt 1 view .LVU670
# src/kdtree.c:260:                 if(kdtree_root -> lch) KNN_sub_tree_search(point, kdtree_root -> lch, H);
	.loc 1 260 32 is_stmt 0 view .LVU671
	movq	32(%r12), %r12	# kdtree_root_18->lch, kdtree_root
# src/kdtree.c:260:                 if(kdtree_root -> lch) KNN_sub_tree_search(point, kdtree_root -> lch, H);
	.loc 1 260 19 view .LVU672
	testq	%r12, %r12	# kdtree_root
	jne	.L107	#,
.LVL188:
.L137:
# src/kdtree.c:268: }
	.loc 1 268 1 view .LVU673
	addq	$48, %rsp	#,
	popq	%rbx	#
.LVL189:
	.loc 1 268 1 view .LVU674
	popq	%r10	#
	.cfi_remember_state
	.cfi_def_cfa 10, 0
	popq	%r12	#
	popq	%r13	#
.LVL190:
	.loc 1 268 1 view .LVU675
	popq	%rbp	#
	leaq	-8(%r10), %rsp	#,
	.cfi_def_cfa 7, 8
	ret	
.LVL191:
	.p2align 4,,10
	.p2align 3
.L140:
	.cfi_restore_state
	.loc 1 236 13 is_stmt 1 view .LVU676
# src/kdtree.c:236:             if(kdtree_root -> lch) KNN_sub_tree_search(point, kdtree_root -> lch, H);
	.loc 1 236 28 is_stmt 0 view .LVU677
	movq	32(%r12), %rsi	# kdtree_root_18->lch, _6
# src/kdtree.c:236:             if(kdtree_root -> lch) KNN_sub_tree_search(point, kdtree_root -> lch, H);
	.loc 1 236 15 view .LVU678
	testq	%rsi, %rsi	# _6
	je	.L142	#,
# src/kdtree.c:236:             if(kdtree_root -> lch) KNN_sub_tree_search(point, kdtree_root -> lch, H);
	.loc 1 236 36 discriminator 1 view .LVU679
	movq	%r13, %rdx	# H,
	movq	%rbx, %rdi	# point,
	vmovsd	%xmm1, -56(%rbp)	# _34, %sfp
.LVL192:
	.loc 1 236 36 is_stmt 1 discriminator 1 view .LVU680
	call	KNN_sub_tree_search	#
.LVL193:
	.loc 1 246 5 view .LVU681
	.loc 1 247 5 view .LVU682
	.loc 1 250 5 view .LVU683
# src/kdtree.c:247:     int c   = max_d > (hp_distance * hp_distance);
	.loc 1 247 36 is_stmt 0 view .LVU684
	vmovsd	-56(%rbp), %xmm1	# %sfp, _34
# src/kdtree.c:246:     FLOAT_TYPE max_d = H -> data[0].value;
	.loc 1 246 16 view .LVU685
	movq	16(%r13), %rax	# H_22(D)->data, H_22(D)->data
# src/kdtree.c:247:     int c   = max_d > (hp_distance * hp_distance);
	.loc 1 247 36 view .LVU686
	vmulsd	%xmm1, %xmm1, %xmm1	# _34, _34, tmp187
# src/kdtree.c:250:     if(c || (H -> count) < (H -> N))
	.loc 1 250 7 view .LVU687
	vmovsd	(%rax), %xmm0	#* H_22(D)->data, _48->value
	vcomisd	%xmm1, %xmm0	# tmp187, _48->value
	ja	.L120	#,
.LVL194:
.L116:
# src/kdtree.c:250:     if(c || (H -> count) < (H -> N))
	.loc 1 250 10 discriminator 1 view .LVU688
	movq	0(%r13), %rax	# H_22(D)->N, tmp207
	cmpq	%rax, 8(%r13)	# tmp207, H_22(D)->count
	jnb	.L137	#,
.L120:
	.loc 1 256 17 is_stmt 1 view .LVU689
# src/kdtree.c:256:                 if(kdtree_root -> rch) KNN_sub_tree_search(point, kdtree_root -> rch, H);
	.loc 1 256 32 is_stmt 0 view .LVU690
	movq	40(%r12), %r12	# kdtree_root_18->rch, kdtree_root
# src/kdtree.c:256:                 if(kdtree_root -> rch) KNN_sub_tree_search(point, kdtree_root -> rch, H);
	.loc 1 256 19 view .LVU691
	testq	%r12, %r12	# kdtree_root
	je	.L137	#,
	.loc 1 225 5 is_stmt 1 view .LVU692
.LBB215:
.LBB207:
.LBB203:
# src/kdtree.c:21:     for(unsigned int i = 0; i<data_dims; ++i){
	.loc 1 21 30 is_stmt 0 discriminator 1 view .LVU693
	movl	data_dims(%rip), %ecx	# data_dims, data_dims.0_51
.LBE203:
.LBE207:
.LBE215:
# src/kdtree.c:225:     FLOAT_TYPE current_distance = euclidean_distance(point, kdtree_root -> data);
	.loc 1 225 35 view .LVU694
	movq	8(%r12), %rdx	# kdtree_root_18->data, _1
.LVL195:
.LBB216:
	.loc 1 19 12 is_stmt 1 view .LVU695
.LBB208:
	.loc 1 20 5 view .LVU696
	.loc 1 21 5 view .LVU697
.LBB204:
	.loc 1 21 9 view .LVU698
	.loc 1 21 30 discriminator 1 view .LVU699
	testl	%ecx, %ecx	# data_dims.0_51
	jne	.L143	#,
.LVL196:
.L124:
	.loc 1 21 30 is_stmt 0 discriminator 1 view .LVU700
.LBE204:
# src/kdtree.c:20:     FLOAT_TYPE d = 0;
	.loc 1 20 16 view .LVU701
	vxorpd	%xmm0, %xmm0, %xmm0	# d
	jmp	.L108	#
.LVL197:
	.p2align 4,,10
	.p2align 3
.L136:
	.loc 1 20 16 view .LVU702
	vzeroupper
.LVL198:
	.loc 1 20 16 view .LVU703
	jmp	.L108	#
.LVL199:
	.p2align 4,,10
	.p2align 3
.L141:
	.loc 1 20 16 view .LVU704
.LBE208:
.LBE216:
	.loc 1 246 5 is_stmt 1 view .LVU705
	.loc 1 247 5 view .LVU706
	.loc 1 250 5 view .LVU707
# src/kdtree.c:247:     int c   = max_d > (hp_distance * hp_distance);
	.loc 1 247 36 is_stmt 0 view .LVU708
	vmulsd	%xmm1, %xmm1, %xmm1	# _34, _34, tmp190
.LVL200:
# src/kdtree.c:246:     FLOAT_TYPE max_d = H -> data[0].value;
	.loc 1 246 16 view .LVU709
	movq	16(%r13), %rax	# H_22(D)->data, H_22(D)->data
# src/kdtree.c:250:     if(c || (H -> count) < (H -> N))
	.loc 1 250 7 view .LVU710
	vmovsd	(%rax), %xmm0	#* H_22(D)->data, _52->value
	vcomisd	%xmm1, %xmm0	# tmp190, _52->value
	ja	.L122	#,
	jmp	.L123	#
.LVL201:
	.p2align 4,,10
	.p2align 3
.L142:
	.loc 1 246 5 is_stmt 1 view .LVU711
	.loc 1 247 5 view .LVU712
	.loc 1 250 5 view .LVU713
# src/kdtree.c:247:     int c   = max_d > (hp_distance * hp_distance);
	.loc 1 247 36 is_stmt 0 view .LVU714
	vmulsd	%xmm1, %xmm1, %xmm1	# _34, _34, tmp184
.LVL202:
# src/kdtree.c:246:     FLOAT_TYPE max_d = H -> data[0].value;
	.loc 1 246 16 view .LVU715
	movq	16(%r13), %rax	# H_22(D)->data, H_22(D)->data
# src/kdtree.c:250:     if(c || (H -> count) < (H -> N))
	.loc 1 250 7 view .LVU716
	vmovsd	(%rax), %xmm0	#* H_22(D)->data, _56->value
	vcomisd	%xmm1, %xmm0	# tmp184, _56->value
	jbe	.L116	#,
	jmp	.L120	#
.LVL203:
.L125:
.LBB217:
.LBB209:
# src/kdtree.c:20:     FLOAT_TYPE d = 0;
	.loc 1 20 16 view .LVU717
	vxorpd	%xmm0, %xmm0, %xmm0	# d
.LBB205:
# src/kdtree.c:21:     for(unsigned int i = 0; i<data_dims; ++i){
	.loc 1 21 22 view .LVU718
	xorl	%eax, %eax	#
	jmp	.L109	#
.LBE205:
.LBE209:
.LBE217:
	.cfi_endproc
.LFE66:
	.size	KNN_sub_tree_search, .-KNN_sub_tree_search
	.p2align 4
	.globl	KNN
	.type	KNN, @function
KNN:
.LVL204:
.LFB67:
	.loc 1 274 1 is_stmt 1 view -0
	.cfi_startproc
	.loc 1 274 1 is_stmt 0 view .LVU720
	endbr64	
	pushq	%r13	#
	.cfi_def_cfa_offset 16
	.cfi_offset 13, -16
	movq	%rdx, %r13	# tmp98, kdtree_root
	pushq	%r12	#
	.cfi_def_cfa_offset 24
	.cfi_offset 12, -24
	movq	%rsi, %r12	# tmp97, point
# src/kdtree.c:276:     allocateHeap(&H,maxk);
	.loc 1 276 5 view .LVU721
	movslq	%ecx, %rsi	# tmp99, maxk
.LVL205:
# src/kdtree.c:274: {
	.loc 1 274 1 view .LVU722
	pushq	%rbp	#
	.cfi_def_cfa_offset 32
	.cfi_offset 6, -32
	pushq	%rbx	#
	.cfi_def_cfa_offset 40
	.cfi_offset 3, -40
	movq	%rdi, %rbx	# tmp96, .result_ptr
	subq	$40, %rsp	#,
	.cfi_def_cfa_offset 80
# src/kdtree.c:274: {
	.loc 1 274 1 view .LVU723
	movq	%fs:40, %rax	# MEM[(<address-space-1> long unsigned int *)40B], tmp100
	movq	%rax, 24(%rsp)	# tmp100, D.6650
	xorl	%eax, %eax	# tmp100
	.loc 1 275 5 is_stmt 1 view .LVU724
	.loc 1 276 5 view .LVU725
	movq	%rsp, %rbp	#, tmp89
	movq	%rbp, %rdi	# tmp89,
.LVL206:
	.loc 1 276 5 is_stmt 0 view .LVU726
	call	allocateHeap@PLT	#
.LVL207:
	.loc 1 277 5 is_stmt 1 view .LVU727
	movq	%rbp, %rdi	# tmp89,
	call	initHeap@PLT	#
.LVL208:
	.loc 1 278 5 view .LVU728
	movq	%rbp, %rdx	# tmp89,
	movq	%r13, %rsi	# kdtree_root,
	movq	%r12, %rdi	# point,
	call	KNN_sub_tree_search	#
.LVL209:
	.loc 1 279 5 view .LVU729
	movq	%rbp, %rdi	# tmp89,
	call	HeapSort@PLT	#
.LVL210:
	.loc 1 283 5 view .LVU730
# src/kdtree.c:283:     return H;
	.loc 1 283 12 is_stmt 0 view .LVU731
	movq	16(%rsp), %rax	# H, H
	vmovdqa	(%rsp), %xmm0	# H, tmp103
	movq	%rax, 16(%rbx)	# H, <retval>
	vmovdqu	%xmm0, (%rbx)	# tmp103, <retval>
# src/kdtree.c:284: }
	.loc 1 284 1 view .LVU732
	movq	24(%rsp), %rax	# D.6650, tmp101
	subq	%fs:40, %rax	# MEM[(<address-space-1> long unsigned int *)40B], tmp101
	jne	.L147	#,
	addq	$40, %rsp	#,
	.cfi_remember_state
	.cfi_def_cfa_offset 40
	movq	%rbx, %rax	# .result_ptr,
	popq	%rbx	#
	.cfi_def_cfa_offset 32
.LVL211:
	.loc 1 284 1 view .LVU733
	popq	%rbp	#
	.cfi_def_cfa_offset 24
	popq	%r12	#
	.cfi_def_cfa_offset 16
.LVL212:
	.loc 1 284 1 view .LVU734
	popq	%r13	#
	.cfi_def_cfa_offset 8
.LVL213:
	.loc 1 284 1 view .LVU735
	ret	
.LVL214:
.L147:
	.cfi_restore_state
	.loc 1 284 1 view .LVU736
	call	__stack_chk_fail@PLT	#
.LVL215:
	.cfi_endproc
.LFE67:
	.size	KNN, .-KNN
	.p2align 4
	.globl	build_tree
	.type	build_tree, @function
build_tree:
.LVL216:
.LFB68:
	.loc 1 287 1 is_stmt 1 view -0
	.cfi_startproc
	.loc 1 287 1 is_stmt 0 view .LVU738
	endbr64	
	.loc 1 296 5 is_stmt 1 view .LVU739
# src/kdtree.c:287: {
	.loc 1 287 1 is_stmt 0 view .LVU740
	pushq	%r13	#
	.cfi_def_cfa_offset 16
	.cfi_offset 13, -16
.LBB220:
.LBB221:
# src/kdtree.c:171:     if ((end - start) < 0) return 0;
	.loc 1 171 8 view .LVU741
	movl	%esi, %r13d	# tmp106, _4
.LBE221:
.LBE220:
# src/kdtree.c:287: {
	.loc 1 287 1 view .LVU742
	pushq	%r12	#
	.cfi_def_cfa_offset 24
	.cfi_offset 12, -24
	pushq	%rbp	#
	.cfi_def_cfa_offset 32
	.cfi_offset 6, -32
	pushq	%rbx	#
	.cfi_def_cfa_offset 40
	.cfi_offset 3, -40
	subq	$8, %rsp	#,
	.cfi_def_cfa_offset 48
# src/kdtree.c:296:    	data_dims = dimensions; 
	.loc 1 296 15 view .LVU743
	movl	%edx, data_dims(%rip)	# tmp107, data_dims
	.loc 1 298 5 is_stmt 1 view .LVU744
.LVL217:
.LBB227:
.LBI220:
	.loc 1 164 10 view .LVU745
.LBB222:
	.loc 1 166 5 view .LVU746
	.loc 1 167 5 view .LVU747
	.loc 1 170 5 view .LVU748
	.loc 1 171 5 view .LVU749
# src/kdtree.c:171:     if ((end - start) < 0) return 0;
	.loc 1 171 8 is_stmt 0 view .LVU750
	subl	$1, %r13d	#, _4
.LVL218:
	.loc 1 171 8 view .LVU751
	js	.L152	#,
	movq	%rdi, %rbp	# tmp105, kd_ptrs
	.loc 1 172 5 is_stmt 1 view .LVU752
# src/kdtree.c:172:     if (end  == start) {
	.loc 1 172 8 is_stmt 0 view .LVU753
	je	.L154	#,
	.loc 1 181 5 is_stmt 1 view .LVU754
# src/kdtree.c:181:     median_idx = medianOfNodes(t, start, end, split_var);
	.loc 1 181 18 is_stmt 0 view .LVU755
	xorl	%ecx, %ecx	#
	movl	%r13d, %edx	# _4,
.LVL219:
	.loc 1 181 18 view .LVU756
	xorl	%esi, %esi	#
.LVL220:
	.loc 1 181 18 view .LVU757
	call	medianOfNodes	#
.LVL221:
	.loc 1 181 18 view .LVU758
	movl	%eax, %r12d	# tmp108, median_idx
.LVL222:
	.loc 1 183 5 is_stmt 1 view .LVU759
# src/kdtree.c:183:     if(median_idx > -1){
	.loc 1 183 7 is_stmt 0 view .LVU760
	testl	%eax, %eax	# median_idx
	js	.L152	#,
	.loc 1 184 9 is_stmt 1 view .LVU761
# src/kdtree.c:184:         n = t[median_idx];
	.loc 1 184 14 is_stmt 0 view .LVU762
	cltq
.LVL223:
# src/kdtree.c:190: 				n->lch  = make_tree(t, start, median_idx - 1, n, level + 1);
	.loc 1 190 15 view .LVU763
	leal	-1(%r12), %edx	#, tmp101
	movq	%rbp, %rdi	# kd_ptrs,
	xorl	%esi, %esi	#
# src/kdtree.c:184:         n = t[median_idx];
	.loc 1 184 11 view .LVU764
	movq	0(%rbp,%rax,8), %rbx	# *_24, <retval>
.LVL224:
	.loc 1 190 5 is_stmt 1 view .LVU765
# src/kdtree.c:190: 				n->lch  = make_tree(t, start, median_idx - 1, n, level + 1);
	.loc 1 190 15 is_stmt 0 view .LVU766
	movq	%rbx, %rcx	# <retval>,
	call	make_tree.constprop.1	#
.LVL225:
# src/kdtree.c:192: 				n->rch = make_tree(t, median_idx + 1, end, n, level + 1);
	.loc 1 192 14 view .LVU767
	leal	1(%r12), %esi	#, tmp102
	movq	%rbx, %rcx	# <retval>,
	movl	%r13d, %edx	# _4,
# src/kdtree.c:190: 				n->lch  = make_tree(t, start, median_idx - 1, n, level + 1);
	.loc 1 190 13 discriminator 1 view .LVU768
	movq	%rax, 32(%rbx)	# tmp109, n_25->lch
	.loc 1 192 5 is_stmt 1 view .LVU769
# src/kdtree.c:192: 				n->rch = make_tree(t, median_idx + 1, end, n, level + 1);
	.loc 1 192 14 is_stmt 0 view .LVU770
	movq	%rbp, %rdi	# kd_ptrs,
	call	make_tree.constprop.1	#
.LVL226:
# src/kdtree.c:196:         n->parent = parent;
	.loc 1 196 19 view .LVU771
	movq	$0, 24(%rbx)	#, n_25->parent
# src/kdtree.c:192: 				n->rch = make_tree(t, median_idx + 1, end, n, level + 1);
	.loc 1 192 12 discriminator 1 view .LVU772
	movq	%rax, 40(%rbx)	# tmp110, n_25->rch
	.loc 1 195 9 is_stmt 1 view .LVU773
	.loc 1 196 9 view .LVU774
	.loc 1 197 9 view .LVU775
.LBE222:
.LBE227:
# src/kdtree.c:302: }
	.loc 1 302 1 is_stmt 0 view .LVU776
	movq	%rbx, %rax	# <retval>,
.LBB228:
.LBB223:
# src/kdtree.c:197:         n->level = level;
	.loc 1 197 18 view .LVU777
	movq	$0, (%rbx)	#, MEM <vector(2) int> [(int *)n_25]
.LVL227:
	.loc 1 197 18 view .LVU778
.LBE223:
.LBE228:
	.loc 1 300 5 is_stmt 1 view .LVU779
# src/kdtree.c:302: }
	.loc 1 302 1 is_stmt 0 view .LVU780
	addq	$8, %rsp	#,
	.cfi_remember_state
	.cfi_def_cfa_offset 40
	popq	%rbx	#
	.cfi_def_cfa_offset 32
.LVL228:
	.loc 1 302 1 view .LVU781
	popq	%rbp	#
	.cfi_def_cfa_offset 24
.LVL229:
	.loc 1 302 1 view .LVU782
	popq	%r12	#
	.cfi_def_cfa_offset 16
	popq	%r13	#
	.cfi_def_cfa_offset 8
	ret	
.LVL230:
	.p2align 4,,10
	.p2align 3
.L152:
	.cfi_restore_state
	.loc 1 302 1 view .LVU783
	addq	$8, %rsp	#,
	.cfi_remember_state
	.cfi_def_cfa_offset 40
.LBB229:
.LBB224:
# src/kdtree.c:171:     if ((end - start) < 0) return 0;
	.loc 1 171 35 discriminator 1 view .LVU784
	xorl	%ebx, %ebx	# <retval>
.LBE224:
.LBE229:
# src/kdtree.c:302: }
	.loc 1 302 1 view .LVU785
	movq	%rbx, %rax	# <retval>,
	popq	%rbx	#
	.cfi_def_cfa_offset 32
	popq	%rbp	#
	.cfi_def_cfa_offset 24
	popq	%r12	#
	.cfi_def_cfa_offset 16
	popq	%r13	#
	.cfi_def_cfa_offset 8
.LVL231:
	.loc 1 302 1 view .LVU786
	ret	
.LVL232:
	.p2align 4,,10
	.p2align 3
.L154:
	.cfi_restore_state
.LBB230:
.LBB225:
	.loc 1 173 9 is_stmt 1 view .LVU787
# src/kdtree.c:173:         n = t[start];
	.loc 1 173 11 is_stmt 0 view .LVU788
	movq	(%rdi), %rbx	# *kd_ptrs_9(D), <retval>
.LVL233:
	.loc 1 174 9 is_stmt 1 view .LVU789
	.loc 1 175 9 view .LVU790
	.loc 1 176 9 view .LVU791
# src/kdtree.c:175:         n->parent = parent;
	.loc 1 175 19 is_stmt 0 view .LVU792
	vpxor	%xmm0, %xmm0, %xmm0	# tmp99
# src/kdtree.c:176:         n->level = level;
	.loc 1 176 18 view .LVU793
	movq	$0, (%rbx)	#, MEM <vector(2) int> [(int *)n_20]
	.loc 1 177 9 is_stmt 1 view .LVU794
.LBE225:
.LBE230:
# src/kdtree.c:302: }
	.loc 1 302 1 is_stmt 0 view .LVU795
	movq	%rbx, %rax	# <retval>,
.LBB231:
.LBB226:
# src/kdtree.c:178:         n -> rch = NULL;
	.loc 1 178 18 view .LVU796
	movq	$0, 40(%rbx)	#, n_20->rch
# src/kdtree.c:175:         n->parent = parent;
	.loc 1 175 19 view .LVU797
	vmovdqu	%xmm0, 24(%rbx)	# tmp99, MEM <vector(2) long unsigned int> [(struct kd_node * *)n_20 + 24B]
	.loc 1 178 9 is_stmt 1 view .LVU798
	.loc 1 179 9 view .LVU799
.LBE226:
.LBE231:
# src/kdtree.c:302: }
	.loc 1 302 1 is_stmt 0 view .LVU800
	addq	$8, %rsp	#,
	.cfi_def_cfa_offset 40
	popq	%rbx	#
	.cfi_def_cfa_offset 32
.LVL234:
	.loc 1 302 1 view .LVU801
	popq	%rbp	#
	.cfi_def_cfa_offset 24
	popq	%r12	#
	.cfi_def_cfa_offset 16
	popq	%r13	#
	.cfi_def_cfa_offset 8
.LVL235:
	.loc 1 302 1 view .LVU802
	ret	
	.cfi_endproc
.LFE68:
	.size	build_tree, .-build_tree
	.globl	c
	.bss
	.align 4
	.type	c, @object
	.size	c, 4
c:
	.zero	4
	.section	.rodata.cst8,"aM",@progbits,8
	.align 8
.LC1:
	.long	-1
	.long	-1
	.section	.rodata.cst32,"aM",@progbits,32
	.align 32
.LC3:
	.quad	0
	.quad	1
	.quad	2
	.quad	3
	.section	.rodata.cst8
	.align 8
.LC5:
	.quad	4
	.text
.Letext0:
	.file 4 "/usr/lib/gcc/x86_64-linux-gnu/13/include/stddef.h"
	.file 5 "/usr/include/x86_64-linux-gnu/bits/types.h"
	.file 6 "/usr/include/x86_64-linux-gnu/bits/stdint-uintn.h"
	.file 7 "src/../include/heap.h"
	.file 8 "src/../include/kdtree.h"
	.file 9 "/usr/include/x86_64-linux-gnu/bits/stdio2-decl.h"
	.file 10 "<built-in>"
	.section	.note.GNU-stack,"",@progbits
	.section	.note.gnu.property,"a"
	.align 8
	.long	1f - 0f
	.long	4f - 1f
	.long	5
0:
	.string	"GNU"
1:
	.align 8
	.long	0xc0000002
	.long	3f - 2f
2:
	.long	0x3
3:
	.align 8
4:
